(lp0
(L6630776408308463934L
V268.png
p1
tp2
a(L15831094352338703392L
V1348.png
p3
tp4
a(L11260540208225228670L
V1782.png
p5
tp6
a(L24068601835788972446L
V333.png
p7
tp8
a(L35890397249692348478L
V1805.png
p9
tp10
a(L23319095803130491170L
V264.png
p11
tp12
a(L26173670404147301760L
V1189.png
p13
tp14
a(L7267831669966488270L
V375.png
p15
tp16
a(L18715414446896491982L
V706.png
p17
tp18
a(L34839374157921808672L
V1574.png
p19
tp20
a(L18320561067865869130L
V1999.png
p21
tp22
a(L18558125097633760976L
V1586.png
p23
tp24
a(L31151306955059021340L
V1506.png
p25
tp26
a(L8303439286803552960L
V722.png
p27
tp28
a(L12949991863931587552L
V1495.png
p29
tp30
a(L26857957652566765540L
V944.png
p31
tp32
a(L11277367457436446748L
V1792.png
p33
tp34
a(L30260300413725722244L
V693.png
p35
tp36
a(L20445091098338754340L
V1548.png
p37
tp38
a(L34872144727203104480L
V509.png
p39
tp40
a(L30320691006799447646L
V1879.png
p41
tp42
a(L21169380953439110874L
V1161.png
p43
tp44
a(L6865009321739294014L
V71.png
p45
tp46
a(L30302805941327312604L
V538.png
p47
tp48
a(L14489869524430955552L
V1993.png
p49
tp50
a(L27428455580553126846L
V149.png
p51
tp52
a(L17325522514713152608L
V817.png
p53
tp54
a(L31224488521574827588L
V1628.png
p55
tp56
a(L16825338693328437134L
V620.png
p57
tp58
a(L8954365625115915546L
V1344.png
p59
tp60
a(L9676260616568410074L
V1221.png
p61
tp62
a(L2019091593545756958L
V1101.png
p63
tp64
a(L34788401414469688860L
V1195.png
p65
tp66
a(L18516609676372197892L
V820.png
p67
tp68
a(L25490126636863679712L
V69.png
p69
tp70
a(L36421446401846619848L
V1140.png
p71
tp72
a(L34837249096619808484L
V917.png
p73
tp74
a(L30105083914829219546L
V1256.png
p75
tp76
a(L34299768665514226072L
V1770.png
p77
tp78
a(L11242464145792348442L
V1229.png
p79
tp80
a(L11820015066024620764L
V199.png
p81
tp82
a(L14912213956968835558L
V147.png
p83
tp84
a(L31473586694324324094L
V1502.png
p85
tp86
a(L25037548989269240256L
V309.png
p87
tp88
a(L34295753374038149856L
V1990.png
p89
tp90
a(L34871411879645477600L
V674.png
p91
tp92
a(L30321258359363790032L
V1871.png
p93
tp94
a(L36550795167540865506L
V485.png
p95
tp96
a(L12752847656319632512L
V634.png
p97
tp98
a(L19683725739397212454L
V1303.png
p99
tp100
a(L106578830637648772L
V1300.png
p101
tp102
a(L28315844097145892256L
V1922.png
p103
tp104
a(L4737290274290231488L
V829.png
p105
tp106
a(L4872685919096219950L
V1398.png
p107
tp108
a(L30320695391961057022L
V345.png
p109
tp110
a(L6572957682179131808L
V70.png
p111
tp112
a(L5694048762440331544L
V630.png
p113
tp114
a(L34857498081287096288L
V1504.png
p115
tp116
a(L31185385008991422194L
V349.png
p117
tp118
a(L1275280533377208036L
V99.png
p119
tp120
a(L25595720901823718368L
V1636.png
p121
tp122
a(L36418963985676622176L
V1946.png
p123
tp124
a(L14123101577800698176L
V1556.png
p125
tp126
a(L6016657849490491810L
V522.png
p127
tp128
a(L6785899478286433074L
V174.png
p129
tp130
a(L16086938874504590616L
V1172.png
p131
tp132
a(L3242238052704865806L
V1385.png
p133
tp134
a(L36586935023798733544L
V372.png
p135
tp136
a(L1496718526994822558L
V1060.png
p137
tp138
a(L29886445458576683282L
V1872.png
p139
tp140
a(L30838301300272844448L
V1253.png
p141
tp142
a(L7043480677383072354L
V927.png
p143
tp144
a(L9554810144081915998L
V75.png
p145
tp146
a(L25058015338674679776L
V1381.png
p147
tp148
a(L4737690073233017568L
V1169.png
p149
tp150
a(L5997163908018261600L
V589.png
p151
tp152
a(L25072424014105530148L
V1772.png
p153
tp154
a(L18590637338371476098L
V1128.png
p155
tp156
a(L5515863985314116894L
V1934.png
p157
tp158
a(L30284697314693318366L
V488.png
p159
tp160
a(L22165860821012302364L
V1133.png
p161
tp162
a(L29796326596017958992L
V874.png
p163
tp164
a(L30320725719788652286L
V760.png
p165
tp166
a(L24086512891987997944L
V1807.png
p167
tp168
a(L25624624654362037888L
V1843.png
p169
tp170
a(L11853757562797700956L
V429.png
p171
tp172
a(L15219708571812252000L
V1090.png
p173
tp174
a(L1384364833989139236L
V1337.png
p175
tp176
a(L15814157745253744544L
V1113.png
p177
tp178
a(L8914362226326588672L
V613.png
p179
tp180
a(L5697134245534062134L
V1808.png
p181
tp182
a(L30118877288216840896L
V1328.png
p183
tp184
a(L35506590380091801818L
V208.png
p185
tp186
a(L26795267701975181664L
V409.png
p187
tp188
a(L31435386704881878558L
V312.png
p189
tp190
a(L23196797152318519858L
V1534.png
p191
tp192
a(L30320761431378134746L
V945.png
p193
tp194
a(L35686118363606954416L
V1145.png
p195
tp196
a(L30245781630885711488L
V1831.png
p197
tp198
a(L34900828725425571452L
V928.png
p199
tp200
a(L270188530350836416L
V1862.png
p201
tp202
a(L32014117192765904606L
V275.png
p203
tp204
a(L2037732746964538650L
V152.png
p205
tp206
a(L18716596505957911528L
V1474.png
p207
tp208
a(L24085200545604991464L
V1225.png
p209
tp210
a(L25071925039867338312L
V314.png
p211
tp212
a(L30109583792955638976L
V1019.png
p213
tp214
a(L32157189771381544222L
V1197.png
p215
tp216
a(L30446752217739047134L
V1748.png
p217
tp218
a(L31415631953062973124L
V427.png
p219
tp220
a(L6776874111143831306L
V225.png
p221
tp222
a(L11242463597114241310L
V181.png
p223
tp224
a(L31324422661966319528L
V1783.png
p225
tp226
a(L11439235219560706136L
V1185.png
p227
tp228
a(L6032222799160048096L
V188.png
p229
tp230
a(L8641044149404584548L
V758.png
p231
tp232
a(L1591429894276205120L
V20.png
p233
tp234
a(L22192501500642516676L
V568.png
p235
tp236
a(L36551145095437642016L
V1231.png
p237
tp238
a(L36584591414522960608L
V1321.png
p239
tp240
a(L17059912242739065562L
V1009.png
p241
tp242
a(L18512210999310533342L
V1015.png
p243
tp244
a(L11260487360804335898L
V322.png
p245
tp246
a(L6608564266227951904L
V1584.png
p247
tp248
a(L269956904878823840L
V1578.png
p249
tp250
a(L6487111524761746092L
V1865.png
p251
tp252
a(L36582386771596732384L
V484.png
p253
tp254
a(L28928665673516115108L
V1355.png
p255
tp256
a(L30302614061729724092L
V1721.png
p257
tp258
a(L14297442225769726044L
V1825.png
p259
tp260
a(L30320677799775995610L
V852.png
p261
tp262
a(L34151416691596975712L
V1433.png
p263
tp264
a(L20408008993316272192L
V955.png
p265
tp266
a(L4879120675878107492L
V1126.png
p267
tp268
a(L6608886694317620132L
V1869.png
p269
tp270
a(L27325044062669924772L
V1054.png
p271
tp272
a(L8311524824962746528L
V332.png
p273
tp274
a(L30860067348711048926L
V402.png
p275
tp276
a(L17746710917422291450L
V1666.png
p277
tp278
a(L15854150020338302260L
V82.png
p279
tp280
a(L6878968303838345492L
V1846.png
p281
tp282
a(L2019092177795495198L
V229.png
p283
tp284
a(L18920980016341004794L
V269.png
p285
tp286
a(L12930844887141501760L
V1010.png
p287
tp288
a(L12414191551788392730L
V1031.png
p289
tp290
a(L30118717758233038466L
V41.png
p291
tp292
a(L14850409109656113462L
V582.png
p293
tp294
a(L6203226399613133614L
V520.png
p295
tp296
a(L25562306551503018976L
V203.png
p297
tp298
a(L23403449778473861854L
V787.png
p299
tp300
a(L28965530799871581796L
V704.png
p301
tp302
a(L2019091698772424094L
V1822.png
p303
tp304
a(L4694462402860904352L
V1222.png
p305
tp306
a(L11241268014580347998L
V1237.png
p307
tp308
a(L23273372209156485092L
V838.png
p309
tp310
a(L14122998096558964984L
V1658.png
p311
tp312
a(L28855139702511455526L
V453.png
p313
tp314
a(L6572975441600465696L
V1826.png
p315
tp316
a(L35422736815625299180L
V1460.png
p317
tp318
a(L26733474765924159788L
V1724.png
p319
tp320
a(L13004686713703073460L
V1483.png
p321
tp322
a(L25690946610504741886L
V818.png
p323
tp324
a(L23346517665675954912L
V1544.png
p325
tp326
a(L18176925949944452694L
V503.png
p327
tp328
a(L11955425655350021862L
V1905.png
p329
tp330
a(L287848078595279040L
V1833.png
p331
tp332
a(L29655589414521093098L
V990.png
p333
tp334
a(L30320695537989945054L
V83.png
p335
tp336
a(L5855897009860255916L
V177.png
p337
tp338
a(L23741389599357173252L
V1518.png
p339
tp340
a(L20465835631821828478L
V516.png
p341
tp342
a(L20894520127713442184L
V1050.png
p343
tp344
a(L24103339130501280222L
V1595.png
p345
tp346
a(L30320695391961056990L
V1244.png
p347
tp348
a(L24085332805187545534L
V1312.png
p349
tp350
a(L902198990111259006L
V991.png
p351
tp352
a(L30320689574449874654L
V200.png
p353
tp354
a(L35397983897807646176L
V1701.png
p355
tp356
a(L30320695391961056990L
V1079.png
p357
tp358
a(L18566534162256980098L
V1082.png
p359
tp360
a(L25613941465285552548L
V777.png
p361
tp362
a(L28050946040346298008L
V1254.png
p363
tp364
a(L30799703168119393984L
V1430.png
p365
tp366
a(L2018256615362606654L
V1758.png
p367
tp368
a(L36592606849259194946L
V1816.png
p369
tp370
a(L30046537257116757642L
V1944.png
p371
tp372
a(L5477858244179538234L
V826.png
p373
tp374
a(L30063682730239389348L
V423.png
p375
tp376
a(L34098653484841139104L
V5.png
p377
tp378
a(L5674818376938303772L
V701.png
p379
tp380
a(L11260487463610987806L
V1164.png
p381
tp382
a(L28590186655327555834L
V1211.png
p383
tp384
a(L9170535748724892218L
V656.png
p385
tp386
a(L7167346088135510500L
V442.png
p387
tp388
a(L21039320856996335296L
V1116.png
p389
tp390
a(L268560864732999204L
V381.png
p391
tp392
a(L11924365080004447236L
V1420.png
p393
tp394
a(L11259352094639173912L
V1142.png
p395
tp396
a(L21079576838019819204L
V1259.png
p397
tp398
a(L35305327353547832864L
V479.png
p399
tp400
a(L23384056273486287354L
V48.png
p401
tp402
a(L11823349166229522170L
V615.png
p403
tp404
a(L11385497551869653822L
V913.png
p405
tp406
a(L6570238517993535792L
V43.png
p407
tp408
a(L29705964384491182014L
V1411.png
p409
tp410
a(L6776027652546705694L
V1447.png
p411
tp412
a(L12913977437564893408L
V579.png
p413
tp414
a(L34299846463280330038L
V876.png
p415
tp416
a(L32013219098016384542L
V1281.png
p417
tp418
a(L6774620808359981338L
V1241.png
p419
tp420
a(L32261242714783425248L
V1383.png
p421
tp422
a(L30320695537990928074L
V732.png
p423
tp424
a(L2253326169941251850L
V176.png
p425
tp426
a(L23903482151884713440L
V1853.png
p427
tp428
a(L30008502690388289440L
V1977.png
p429
tp430
a(L30118717859198323904L
V1644.png
p431
tp432
a(L31233517730389804050L
V416.png
p433
tp434
a(L30300263583479531294L
V175.png
p435
tp436
a(L13108219104156239404L
V1750.png
p437
tp438
a(L22194244121998440094L
V1798.png
p439
tp440
a(L20823447667665440466L
V120.png
p441
tp442
a(L6536786006653693956L
V1289.png
p443
tp444
a(L31248395829559281174L
V521.png
p445
tp446
a(L30302520066118878814L
V219.png
p447
tp448
a(L6630785292443859228L
V1890.png
p449
tp450
a(L32051491485086744602L
V1788.png
p451
tp452
a(L6063466928596136446L
V1440.png
p453
tp454
a(L26467452942620572698L
V1156.png
p455
tp456
a(L23129244487472834752L
V230.png
p457
tp458
a(L24495136298661272292L
V843.png
p459
tp460
a(L8917052811888224866L
V1755.png
p461
tp462
a(L31473681228414265036L
V40.png
p463
tp464
a(L30897222183967098078L
V1486.png
p465
tp466
a(L31436649255892190750L
V993.png
p467
tp468
a(L15677691566174855920L
V1754.png
p469
tp470
a(L8880735477166729632L
V192.png
p471
tp472
a(L15301517988167980862L
V524.png
p473
tp474
a(L36548600685952916448L
V356.png
p475
tp476
a(L24062758562717141704L
V1129.png
p477
tp478
a(L1278660296813825220L
V899.png
p479
tp480
a(L24298828771299051936L
V1979.png
p481
tp482
a(L5702753481765759262L
V1866.png
p483
tp484
a(L140225167740594244L
V1218.png
p485
tp486
a(L6783899449682145598L
V1158.png
p487
tp488
a(L2428256863523686528L
V360.png
p489
tp490
a(L18392177642084662048L
V1690.png
p491
tp492
a(L19722166710149315684L
V1078.png
p493
tp494
a(L10703310235388978780L
V277.png
p495
tp496
a(L22390941144451129582L
V642.png
p497
tp498
a(L30320745419740120830L
V1855.png
p499
tp500
a(L5477856212592898078L
V1236.png
p501
tp502
a(L35866279474145949720L
V764.png
p503
tp504
a(L28386820500796168032L
V1832.png
p505
tp506
a(L30105365392142297298L
V361.png
p507
tp508
a(L10088384445477630492L
V933.png
p509
tp510
a(L21615772746953510084L
V1585.png
p511
tp512
a(L18043270564337478116L
V1920.png
p513
tp514
a(L23904152555141951970L
V670.png
p515
tp516
a(L35828193486208986022L
V695.png
p517
tp518
a(L2181239959875565882L
V931.png
p519
tp520
a(L31257294735484174552L
V569.png
p521
tp522
a(L31759591710514578650L
V554.png
p523
tp524
a(L35413704738982226592L
V133.png
p525
tp526
a(L21674975363834152154L
V528.png
p527
tp528
a(L20857113439744219808L
V1405.png
p529
tp530
a(L6572793923939676980L
V387.png
p531
tp532
a(L23505636136996659710L
V258.png
p533
tp534
a(L35837072593609288912L
V921.png
p535
tp536
a(L30655163701735451436L
V759.png
p537
tp538
a(L348440809714333086L
V30.png
p539
tp540
a(L35866903655607862000L
V1074.png
p541
tp542
a(L30402022418945920642L
V319.png
p543
tp544
a(L6776063207623996702L
V1699.png
p545
tp546
a(L18137754922215963104L
V1698.png
p547
tp548
a(L8880729912319109540L
V1279.png
p549
tp550
a(L30393175284498621914L
V464.png
p551
tp552
a(L30321816365557417694L
V647.png
p553
tp554
a(L12807608608208146084L
V190.png
p555
tp556
a(L24497194557530622272L
V1737.png
p557
tp558
a(L5674063151877599528L
V1118.png
p559
tp560
a(L19365684367759869178L
V1373.png
p561
tp562
a(L17168486816722747628L
V106.png
p563
tp564
a(L866170243557634332L
V1109.png
p565
tp566
a(L30759372171829961930L
V519.png
p567
tp568
a(L11241285194521358428L
V939.png
p569
tp570
a(L17461545139136517236L
V683.png
p571
tp572
a(L5914714619217534244L
V1898.png
p573
tp574
a(L5995410048519986726L
V1210.png
p575
tp576
a(L33666228524892444832L
V1530.png
p577
tp578
a(L12413162609124410910L
V340.png
p579
tp580
a(L6787282215316748594L
V894.png
p581
tp582
a(L36007047363257399748L
V1038.png
p583
tp584
a(L1235768788206398208L
V1531.png
p585
tp586
a(L17400761552586593474L
V10.png
p587
tp588
a(L4860958413720013000L
V1226.png
p589
tp590
a(L21815713571631633146L
V1033.png
p591
tp592
a(L32011845262465861242L
V1450.png
p593
tp594
a(L18775399589077427402L
V1631.png
p595
tp596
a(L31437849851513374238L
V1908.png
p597
tp598
a(L6953065201269883908L
V1976.png
p599
tp600
a(L34242755754978885280L
V778.png
p601
tp602
a(L17025140978643937852L
V1002.png
p603
tp604
a(L25307063518472120624L
V535.png
p605
tp606
a(L25502658213124722210L
V623.png
p607
tp608
a(L11946009058319304280L
V1630.png
p609
tp610
a(L6016606854793533474L
V1527.png
p611
tp612
a(L34996309786854465948L
V1227.png
p613
tp614
a(L11799353101590882368L
V134.png
p615
tp616
a(L34178939819836528422L
V1983.png
p617
tp618
a(L2430655370763030180L
V1836.png
p619
tp620
a(L21390617016815832646L
V1634.png
p621
tp622
a(L10412098498155470628L
V1232.png
p623
tp624
a(L808589810082074112L
V90.png
p625
tp626
a(L23752604873597381922L
V1985.png
p627
tp628
a(L6774904413640536378L
V1081.png
p629
tp630
a(L2019091610725609742L
V164.png
p631
tp632
a(L27785168969470166740L
V1270.png
p633
tp634
a(L20874910063744560866L
V866.png
p635
tp636
a(L12230567543646603978L
V1473.png
p637
tp638
a(L11174490707180085604L
V1351.png
p639
tp640
a(L5454778404010077604L
V1400.png
p641
tp642
a(L6034704959545494048L
V584.png
p643
tp644
a(L36827879795759265184L
V1175.png
p645
tp646
a(L30320690998209447640L
V842.png
p647
tp648
a(L23203500131867617954L
V365.png
p649
tp650
a(L8917096802218371872L
V315.png
p651
tp652
a(L6511757695274728228L
V1939.png
p653
tp654
a(L30118718615087664648L
V98.png
p655
tp656
a(L31435398526758848510L
V1794.png
p657
tp658
a(L34209018812878427122L
V619.png
p659
tp660
a(L866310929506742622L
V59.png
p661
tp662
a(L9568219785413072478L
V115.png
p663
tp664
a(L31185507328911771294L
V102.png
p665
tp666
a(L35990368317429701224L
V1137.png
p667
tp668
a(L23718916096340487460L
V1991.png
p669
tp670
a(L30320695529401059034L
V936.png
p671
tp672
a(L10107599356669768990L
V238.png
p673
tp674
a(L6783779725270923644L
V1084.png
p675
tp676
a(L18121128248946118208L
V819.png
p677
tp678
a(L2018131773481253112L
V1446.png
p679
tp680
a(L6792951727412065598L
V1425.png
p681
tp682
a(L5421074757130807744L
V169.png
p683
tp684
a(L12992077003262891550L
V1461.png
p685
tp686
a(L32552016650606112480L
V1508.png
p687
tp688
a(L11662835194409830096L
V1209.png
p689
tp690
a(L1893009446303914288L
V982.png
p691
tp692
a(L34242826664651917472L
V1857.png
p693
tp694
a(L2056105656062325166L
V132.png
p695
tp696
a(L2376531991248685764L
V191.png
p697
tp698
a(L26030518180451936610L
V1267.png
p699
tp700
a(L13027134644056262366L
V1943.png
p701
tp702
a(L35432831942620082028L
V1449.png
p703
tp704
a(L6775466754664968542L
V1810.png
p705
tp706
a(L36374086929614579426L
V1076.png
p707
tp708
a(L2583850507155852226L
V1292.png
p709
tp710
a(L30302634402711711962L
V1153.png
p711
tp712
a(L35992511142078335072L
V143.png
p713
tp714
a(L6794877101146485022L
V1617.png
p715
tp716
a(L1961587909991292984L
V655.png
p717
tp718
a(L34463165769715036446L
V1839.png
p719
tp720
a(L25072151195353799268L
V685.png
p721
tp722
a(L30320836268454414046L
V499.png
p723
tp724
a(L13185021062288236380L
V717.png
p725
tp726
a(L35863989565399747296L
V941.png
p727
tp728
a(L30665771457028288192L
V726.png
p729
tp730
a(L6216650980889793306L
V1546.png
p731
tp732
a(L2583702107412154560L
V667.png
p733
tp734
a(L10665342931040572478L
V1875.png
p735
tp736
a(L31631654737670819632L
V1784.png
p737
tp738
a(L35393471757100951872L
V872.png
p739
tp740
a(L24150231731322249688L
V1401.png
p741
tp742
a(L25019419039697894272L
V561.png
p743
tp744
a(L30320694983940146906L
V1369.png
p745
tp746
a(L33296734406018675198L
V124.png
p747
tp748
a(L19282885659237906528L
V710.png
p749
tp750
a(L30302668496170485470L
V447.png
p751
tp752
a(L16602695761996328028L
V614.png
p753
tp754
a(L19348962718463635934L
V1414.png
p755
tp756
a(L30685345097312888000L
V341.png
p757
tp758
a(L19497582468776407518L
V1315.png
p759
tp760
a(L6855684364836502830L
V1092.png
p761
tp762
a(L30392752028226455258L
V450.png
p763
tp764
a(L31271797678397181440L
V731.png
p765
tp766
a(L6846678539564233502L
V505.png
p767
tp768
a(L8124095096526366688L
V94.png
p769
tp770
a(L30302777351873278684L
V1494.png
p771
tp772
a(L4266769404132485696L
V1820.png
p773
tp774
a(L8351598311588251872L
V1456.png
p775
tp776
a(L6050540331866409312L
V1476.png
p777
tp778
a(L4449202764520820358L
V260.png
p779
tp780
a(L30028354084365116956L
V1579.png
p781
tp782
a(L28019355432619968254L
V862.png
p783
tp784
a(L30320620805022385884L
V1573.png
p785
tp786
a(L33089429662848727498L
V1020.png
p787
tp788
a(L18137955059102802720L
V879.png
p789
tp790
a(L12821532712869402276L
V1173.png
p791
tp792
a(L23902347651868223840L
V681.png
p793
tp794
a(L35471639074369548506L
V47.png
p795
tp796
a(L34278748437798909412L
V1596.png
p797
tp798
a(L2019091559186018654L
V1524.png
p799
tp800
a(L11817798588036093534L
V85.png
p801
tp802
a(L9536769905903375966L
V29.png
p803
tp804
a(L13546657318882725600L
V737.png
p805
tp806
a(L1028179089788011002L
V566.png
p807
tp808
a(L1442639740410311710L
V1317.png
p809
tp810
a(L4286131550404636160L
V1094.png
p811
tp812
a(L23593929666895694506L
V1488.png
p813
tp814
a(L11874062794890970716L
V1436.png
p815
tp816
a(L5420018683969694496L
V702.png
p817
tp818
a(L31812298453303381664L
V1570.png
p819
tp820
a(L15832202312140945570L
V1981.png
p821
tp822
a(L26379645243153985562L
V877.png
p823
tp824
a(L35878819622403890912L
V1293.png
p825
tp826
a(L31236549969004709396L
V741.png
p827
tp828
a(L22192530500171321040L
V53.png
p829
tp830
a(L17463601104547990022L
V320.png
p831
tp832
a(L11856031079106950748L
V367.png
p833
tp834
a(L24892411143945670180L
V1407.png
p835
tp836
a(L810582021217671264L
V1032.png
p837
tp838
a(L31006557465284547870L
V1913.png
p839
tp840
a(L6630786335323206932L
V847.png
p841
tp842
a(L25019330735707213056L
V855.png
p843
tp844
a(L15075472157739788644L
V1466.png
p845
tp846
a(L11298803257933076236L
V551.png
p847
tp848
a(L8771222917237960676L
V1454.png
p849
tp850
a(L30286984196491351998L
V859.png
p851
tp852
a(L30284730333865019102L
V1001.png
p853
tp854
a(L8357473482019956064L
V687.png
p855
tp856
a(L31253350606175881920L
V1881.png
p857
tp858
a(L11439516130860708216L
V394.png
p859
tp860
a(L5070291876024947070L
V46.png
p861
tp862
a(L31269123814311317056L
V861.png
p863
tp864
a(L16001323276080738020L
V996.png
p865
tp866
a(L4683329926554372998L
V609.png
p867
tp868
a(L6779405865784258846L
V743.png
p869
tp870
a(L30110995439230379088L
V956.png
p871
tp872
a(L8954644423254513438L
V84.png
p873
tp874
a(L6068622708422239382L
V1250.png
p875
tp876
a(L15861961510361280796L
V1282.png
p877
tp878
a(L12992161103286212254L
V891.png
p879
tp880
a(L15129302797141671460L
V444.png
p881
tp882
a(L6648803549981716760L
V1684.png
p883
tp884
a(L3459161073825945396L
V1275.png
p885
tp886
a(L3559968944451915044L
V1703.png
p887
tp888
a(L36584014170915565472L
V689.png
p889
tp890
a(L31272548245406125710L
V413.png
p891
tp892
a(L17726399028586918376L
V1238.png
p893
tp894
a(L10998142390686562580L
V1647.png
p895
tp896
a(L35489652890902472154L
V1904.png
p897
tp898
a(L23183323039182580230L
V810.png
p899
tp900
a(L18707673814577588578L
V1136.png
p901
tp902
a(L29667129869953362336L
V1849.png
p903
tp904
a(L15575348219637276452L
V1057.png
p905
tp906
a(L11242463735627198750L
V1894.png
p907
tp908
a(L31271587272248151744L
V1797.png
p909
tp910
a(L17857246176067111508L
V1821.png
p911
tp912
a(L31442419163330844252L
V214.png
p913
tp914
a(L30840151845962499746L
V794.png
p915
tp916
a(L1239453456683224614L
V688.png
p917
tp918
a(L9570192597325518556L
V1356.png
p919
tp920
a(L33701164261360494912L
V1958.png
p921
tp922
a(L31253624562264524292L
V1271.png
p923
tp924
a(L15997069253367148862L
V1520.png
p925
tp926
a(L5458086014939528672L
V1410.png
p927
tp928
a(L20463149828370065760L
V1526.png
p929
tp930
a(L11241267462681212438L
V223.png
p931
tp932
a(L6651052605047050558L
V1757.png
p933
tp934
a(L30271069906186344028L
V580.png
p935
tp936
a(L5887319682085484960L
V736.png
p937
tp938
a(L36026110269858433056L
V1127.png
p939
tp940
a(L36584436100451200288L
V1247.png
p941
tp942
a(L24462168396782324064L
V1294.png
p943
tp944
a(L10433069049707071090L
V1242.png
p945
tp946
a(L31260326039658268160L
V1058.png
p947
tp948
a(L5656686184162654704L
V1409.png
p949
tp950
a(L35080947616955862778L
V840.png
p951
tp952
a(L30284732565102888670L
V637.png
p953
tp954
a(L19908418682933514970L
V1063.png
p955
tp956
a(L16985064914592118820L
V1948.png
p957
tp958
a(L30320695531548673754L
V1162.png
p959
tp960
a(L30320693777053353726L
V1533.png
p961
tp962
a(L35412932803231476516L
V1801.png
p963
tp964
a(L19168612141500949268L
V145.png
p965
tp966
a(L35593662698702433556L
V1893.png
p967
tp968
a(L8932780243655549220L
V54.png
p969
tp970
a(L12988589064929248862L
V1829.png
p971
tp972
a(L2612362640307291262L
V653.png
p973
tp974
a(L18779116351601324510L
V916.png
p975
tp976
a(L36596020177871167746L
V1901.png
p977
tp978
a(L27996949736329918174L
V756.png
p979
tp980
a(L16118455213527202072L
V163.png
p981
tp982
a(L30320695529401059038L
V243.png
p983
tp984
a(L21077362422661785342L
V889.png
p985
tp986
a(L18754338846853608958L
V435.png
p987
tp988
a(L19289678982999143780L
V13.png
p989
tp990
a(L21241438135160243962L
V583.png
p991
tp992
a(L17027028980901123222L
V935.png
p993
tp994
a(L29851366688979530008L
V901.png
p995
tp996
a(L6774622319920099646L
V107.png
p997
tp998
a(L34716483736004034718L
V297.png
p999
tp1000
a(L8295269124229324512L
V227.png
p1001
tp1002
a(L21060355402743452702L
V1851.png
p1003
tp1004
a(L8306398622662296638L
V558.png
p1005
tp1006
a(L2162934256282940222L
V646.png
p1007
tp1008
a(L30263810097371860674L
V1722.png
p1009
tp1010
a(L34932355022320076492L
V1213.png
p1011
tp1012
a(L24082155803580447026L
V1589.png
p1013
tp1014
a(L19909274280697107830L
V814.png
p1015
tp1016
a(L24228905911804717572L
V1953.png
p1017
tp1018
a(L28574373189744669950L
V1910.png
p1019
tp1020
a(L27962710963197129688L
V1796.png
p1021
tp1022
a(L866179332782207326L
V1207.png
p1023
tp1024
a(L22374095924767830492L
V1014.png
p1025
tp1026
a(L11658595821321117250L
V903.png
p1027
tp1028
a(L22157462419256540740L
V1674.png
p1029
tp1030
a(L36494715759000996424L
V1334.png
p1031
tp1032
a(L27236402805126090246L
V992.png
p1033
tp1034
a(L18158439088254740960L
V318.png
p1035
tp1036
a(L31249902161953507048L
V401.png
p1037
tp1038
a(L2272014574713532920L
V422.png
p1039
tp1040
a(L9692025021299790714L
V244.png
p1041
tp1042
a(L33137094469479166202L
V299.png
p1043
tp1044
a(L31447438693395121682L
V66.png
p1045
tp1046
a(L8360164266657198366L
V856.png
p1047
tp1048
a(L28535089211647275166L
V502.png
p1049
tp1050
a(L15890178540336157054L
V236.png
p1051
tp1052
a(L5507176237111482010L
V1967.png
p1053
tp1054
a(L4808707643358734692L
V1582.png
p1055
tp1056
a(L8175023899351116832L
V567.png
p1057
tp1058
a(L8449480829874137572L
V751.png
p1059
tp1060
a(L34645546847044470444L
V1366.png
p1061
tp1062
a(L25707911034423744190L
V1592.png
p1063
tp1064
a(L32744331316899991638L
V272.png
p1065
tp1066
a(L4842196766060931942L
V1064.png
p1067
tp1068
a(L26465538384251392506L
V1717.png
p1069
tp1070
a(L15831911976077257002L
V532.png
p1071
tp1072
a(L3515779102966184244L
V830.png
p1073
tp1074
a(L22944916822954453396L
V1045.png
p1075
tp1076
a(L30392749722902824686L
V265.png
p1077
tp1078
a(L5165556339764849376L
V184.png
p1079
tp1080
a(L8005776009238046818L
V321.png
p1081
tp1082
a(L21004682338225285312L
V241.png
p1083
tp1084
a(L3726329220766587360L
V382.png
p1085
tp1086
a(L11664521958139857604L
V651.png
p1087
tp1088
a(L15659966898669586732L
V763.png
p1089
tp1090
a(L26748801013679119904L
V1753.png
p1091
tp1092
a(L31362782551697738464L
V1016.png
p1093
tp1094
a(L30320675738190710494L
V1827.png
p1095
tp1096
a(L30464621652479874812L
V42.png
p1097
tp1098
a(L30859167879471138462L
V811.png
p1099
tp1100
a(L34096777730146954656L
V1036.png
p1101
tp1102
a(L15573799626024974604L
V711.png
p1103
tp1104
a(L36308181577767973674L
V384.png
p1105
tp1106
a(L2180660547043848554L
V1089.png
p1107
tp1108
a(L16762138222531439372L
V1452.png
p1109
tp1110
a(L11404604885338272026L
V1364.png
p1111
tp1112
a(L33292160233431183580L
V1119.png
p1113
tp1114
a(L30086302748420679310L
V1914.png
p1115
tp1116
a(L12969103870824172256L
V1513.png
p1117
tp1118
a(L17436737440247893572L
V1616.png
p1119
tp1120
a(L34929984629935572696L
V1278.png
p1121
tp1122
a(L15871047498643904312L
V943.png
p1123
tp1124
a(L31829371686999514022L
V1959.png
p1125
tp1126
a(L16015857090577264946L
V691.png
p1127
tp1128
a(L25347458384301140282L
V816.png
p1129
tp1130
a(L5421889327178607456L
V845.png
p1131
tp1132
a(L6792942384004280638L
V960.png
p1133
tp1134
a(L5421114342407654434L
V511.png
p1135
tp1136
a(L5369768739203987772L
V1711.png
p1137
tp1138
a(L26859710053762765240L
V1362.png
p1139
tp1140
a(L24891013533180429990L
V1117.png
p1141
tp1142
a(L6774902300516561182L
V1261.png
p1143
tp1144
a(L22024465787452525008L
V585.png
p1145
tp1146
a(L24106884539813274110L
V954.png
p1147
tp1148
a(L31386627453973088960L
V1115.png
p1149
tp1150
a(L22016054484864321218L
V420.png
p1151
tp1152
a(L6207169316895601438L
V1957.png
p1153
tp1154
a(L31990174746916084800L
V546.png
p1155
tp1156
a(L21004698662857264768L
V1246.png
p1157
tp1158
a(L25050381022742458274L
V832.png
p1159
tp1160
a(L2163205799282030906L
V1512.png
p1161
tp1162
a(L9345291651514586756L
V1602.png
p1163
tp1164
a(L15240049599910406688L
V1341.png
p1165
tp1166
a(L2037150091705692446L
V1649.png
p1167
tp1168
a(L5482369047469536558L
V1458.png
p1169
tp1170
a(L30262851758131302104L
V631.png
p1171
tp1172
a(L30320695391962105562L
V699.png
p1173
tp1174
a(L22283582738836445444L
V708.png
p1175
tp1176
a(L21169381088731825882L
V1463.png
p1177
tp1178
a(L9533311254646064670L
V1367.png
p1179
tp1180
a(L6565759650938251538L
V1313.png
p1181
tp1182
a(L35287555330384260800L
V271.png
p1183
tp1184
a(L30118577667405694660L
V457.png
p1185
tp1186
a(L30320693330376689374L
V969.png
p1187
tp1188
a(L903177769481404922L
V1673.png
p1189
tp1190
a(L2463389207452346850L
V1691.png
p1191
tp1192
a(L21097313493879351490L
V1752.png
p1193
tp1194
a(L10089542091433652574L
V1368.png
p1195
tp1196
a(L23978510410190759126L
V1838.png
p1197
tp1198
a(L16966085420456271712L
V507.png
p1199
tp1200
a(L19313058232758482270L
V1565.png
p1201
tp1202
a(L19348944026765439486L
V1467.png
p1203
tp1204
a(L35453621647865591230L
V1499.png
p1205
tp1206
a(L15975745758582649180L
V1795.png
p1207
tp1208
a(L1418075735974378080L
V458.png
p1209
tp1210
a(L1156347699910448414L
V1480.png
p1211
tp1212
a(L4886737703719882340L
V1793.png
p1213
tp1214
a(L30178404866521405150L
V753.png
p1215
tp1216
a(L17025094969729519966L
V1767.png
p1217
tp1218
a(L24024452279366936678L
V581.png
p1219
tp1220
a(L6571849331524461860L
V50.png
p1221
tp1222
a(L30115637667385921154L
V58.png
p1223
tp1224
a(L30325058254100072158L
V1848.png
p1225
tp1226
a(L36579332170157030884L
V747.png
p1227
tp1228
a(L20035630567936275450L
V1791.png
p1229
tp1230
a(L21097318424483825374L
V492.png
p1231
tp1232
a(L6049238783618443616L
V476.png
p1233
tp1234
a(L28732996119643362578L
V1343.png
p1235
tp1236
a(L6609810754311965426L
V252.png
p1237
tp1238
a(L21241504079551431418L
V283.png
p1239
tp1240
a(L6777155593603136830L
V17.png
p1241
tp1242
a(L12713404838162072684L
V1557.png
p1243
tp1244
a(L6774614228470165822L
V1973.png
p1245
tp1246
a(L25795908404821058146L
V211.png
p1247
tp1248
a(L29833325737686151260L
V607.png
p1249
tp1250
a(L33704585226727716322L
V1233.png
p1251
tp1252
a(L2019091698772390174L
V2000.png
p1253
tp1254
a(L5990757821768888672L
V1564.png
p1255
tp1256
a(L1029595264282827290L
V1444.png
p1257
tp1258
a(L26208283301822754784L
V1497.png
p1259
tp1260
a(L24478027344506767648L
V189.png
p1261
tp1262
a(L34932380330204177630L
V970.png
p1263
tp1264
a(L26989186125391731706L
V1552.png
p1265
tp1266
a(L30320695546848248536L
V1123.png
p1267
tp1268
a(L33721730621278673640L
V193.png
p1269
tp1270
a(L14148506105118827484L
V303.png
p1271
tp1272
a(L2017965796718129470L
V1705.png
p1273
tp1274
a(L5455917635736074468L
V1989.png
p1275
tp1276
a(L2055119443524432158L
V1107.png
p1277
tp1278
a(L26373162538417566078L
V1110.png
p1279
tp1280
a(L30320691135640012506L
V62.png
p1281
tp1282
a(L22043981484547264452L
V1021.png
p1283
tp1284
a(L30176570325594838750L
V179.png
p1285
tp1286
a(L20877065487998682822L
V335.png
p1287
tp1288
a(L34262257711675069408L
V129.png
p1289
tp1290
a(L25036394940344298784L
V310.png
p1291
tp1292
a(L142892331391700548L
V148.png
p1293
tp1294
a(L18514648412574142080L
V1068.png
p1295
tp1296
a(L21097319098797885178L
V742.png
p1297
tp1298
a(L31215242514745199200L
V1354.png
p1299
tp1300
a(L5419871101415356696L
V1603.png
p1301
tp1302
a(L15998274198854545726L
V1730.png
p1303
tp1304
a(L29019532298056322128L
V1481.png
p1305
tp1306
a(L30843068985485309594L
V629.png
p1307
tp1308
a(L26250598117548594522L
V60.png
p1309
tp1310
a(L4301567567541812836L
V1510.png
p1311
tp1312
a(L142469705301150402L
V459.png
p1313
tp1314
a(L33109996812532959660L
V1180.png
p1315
tp1316
a(L29629943668058187936L
V1731.png
p1317
tp1318
a(L6774901733578780988L
V1393.png
p1319
tp1320
a(L19351124495965959772L
V1205.png
p1321
tp1322
a(L9569229211213501594L
V1234.png
p1323
tp1324
a(L34325698658416309566L
V1919.png
p1325
tp1326
a(L18100842146025929504L
V155.png
p1327
tp1328
a(L1597252136111993444L
V1148.png
p1329
tp1330
a(L24605152881534640480L
V664.png
p1331
tp1332
a(L35495326983160181978L
V441.png
p1333
tp1334
a(L2590623319434219044L
V865.png
p1335
tp1336
a(L25221516399724474810L
V117.png
p1337
tp1338
a(L6630778129248237982L
V1653.png
p1339
tp1340
a(L15434672717999463032L
V1051.png
p1341
tp1342
a(L27327495966351846120L
V1710.png
p1343
tp1344
a(L4269126771256285920L
V902.png
p1345
tp1346
a(L8876370627349335456L
V779.png
p1347
tp1348
a(L18708540499261471176L
V1049.png
p1349
tp1350
a(L6822179652317067550L
V1465.png
p1351
tp1352
a(L29089583261498381042L
V1896.png
p1353
tp1354
a(L4880360487993101028L
V893.png
p1355
tp1356
a(L30320695391961056990L
V849.png
p1357
tp1358
a(L33292503819502825946L
V694.png
p1359
tp1360
a(L2234147954741227800L
V735.png
p1361
tp1362
a(L2555584218708986624L
V1633.png
p1363
tp1364
a(L30320693884427470554L
V1150.png
p1365
tp1366
a(L6158275486112180388L
V396.png
p1367
tp1368
a(L5504922251419768074L
V1151.png
p1369
tp1370
a(L1234884556949484582L
V500.png
p1371
tp1372
a(L30284732565119141598L
V100.png
p1373
tp1374
a(L11108798562199477024L
V1742.png
p1375
tp1376
a(L15565497455549133176L
V9.png
p1377
tp1378
a(L10718889373298427414L
V1932.png
p1379
tp1380
a(L16317459602093369700L
V296.png
p1381
tp1382
a(L4719524777465571506L
V515.png
p1383
tp1384
a(L30321886781521102494L
V873.png
p1385
tp1386
a(L36461044098175322178L
V668.png
p1387
tp1388
a(L14753861425775347416L
V1044.png
p1389
tp1390
a(L2575767654895341280L
V170.png
p1391
tp1392
a(L6243195365102008638L
V1482.png
p1393
tp1394
a(L1579555564301108240L
V905.png
p1395
tp1396
a(L34875496339275958760L
V981.png
p1397
tp1398
a(L3690513160180296228L
V245.png
p1399
tp1400
a(L1730860257619809582L
V989.png
p1401
tp1402
a(L11835930357264660060L
V1571.png
p1403
tp1404
a(L3601512395798466052L
V822.png
p1405
tp1406
a(L30118709956458499718L
V527.png
p1407
tp1408
a(L8213077400334524096L
V403.png
p1409
tp1410
a(L6864974138176715066L
V1935.png
p1411
tp1412
a(L14719252011787072798L
V217.png
p1413
tp1414
a(L5419596458303060388L
V398.png
p1415
tp1416
a(L35045304675450311828L
V1858.png
p1417
tp1418
a(L13401426630419334566L
V1413.png
p1419
tp1420
a(L21097321860458710746L
V1184.png
p1421
tp1422
a(L34933501215736956126L
V1915.png
p1423
tp1424
a(L18570230749109833696L
V918.png
p1425
tp1426
a(L11259361595111093630L
V1326.png
p1427
tp1428
a(L21106327268648797914L
V925.png
p1429
tp1430
a(L6811483552736360766L
V719.png
p1431
tp1432
a(L30114082318125362402L
V103.png
p1433
tp1434
a(L30285856132764372574L
V700.png
p1435
tp1436
a(L8362454535389887806L
V907.png
p1437
tp1438
a(L16015162100456665370L
V1333.png
p1439
tp1440
a(L18137900667125528992L
V1700.png
p1441
tp1442
a(L31974597379100895460L
V1077.png
p1443
tp1444
a(L25038701721147926816L
V204.png
p1445
tp1446
a(L10686993502193922140L
V1220.png
p1447
tp1448
a(L2037114812575553310L
V884.png
p1449
tp1450
a(L2037170436961506846L
V791.png
p1451
tp1452
a(L1995927455842695200L
V1439.png
p1453
tp1454
a(L25430336470146272992L
V337.png
p1455
tp1456
a(L35724868424189755996L
V1358.png
p1457
tp1458
a(L35507782337658656602L
V172.png
p1459
tp1460
a(L30118005509881253568L
V466.png
p1461
tp1462
a(L30320761362658985690L
V234.png
p1463
tp1464
a(L19168677376330838462L
V1471.png
p1465
tp1466
a(L10682654566157227870L
V1192.png
p1467
tp1468
a(L16007299057689432376L
V1177.png
p1469
tp1470
a(L1276977679001407048L
V1581.png
p1471
tp1472
a(L30311688192706318046L
V1773.png
p1473
tp1474
a(L10702172500836301256L
V1646.png
p1475
tp1476
a(L8880214856340524002L
V1152.png
p1477
tp1478
a(L2520659408170174852L
V1969.png
p1479
tp1480
a(L30320553142644213470L
V837.png
p1481
tp1482
a(L458638812885857598L
V1097.png
p1483
tp1484
a(L32626534028898043626L
V1095.png
p1485
tp1486
a(L19312934056735650302L
V114.png
p1487
tp1488
a(L5495802413459747098L
V1643.png
p1489
tp1490
a(L18158151316024749024L
V739.png
p1491
tp1492
a(L15663736104990175012L
V425.png
p1493
tp1494
a(L19829050503291627744L
V1662.png
p1495
tp1496
a(L27325501425158090464L
V469.png
p1497
tp1498
a(L4267948513850981824L
V160.png
p1499
tp1500
a(L7727794377756920192L
V281.png
p1501
tp1502
a(L30320691002504480472L
V1830.png
p1503
tp1504
a(L23851425064802537760L
V1640.png
p1505
tp1506
a(L28592549426584982678L
V1675.png
p1507
tp1508
a(L6034429163722599138L
V537.png
p1509
tp1510
a(L27661870653727493364L
V1265.png
p1511
tp1512
a(L4862637236206882532L
V573.png
p1513
tp1514
a(L6270219161654538558L
V1732.png
p1515
tp1516
a(L17527579904061110892L
V406.png
p1517
tp1518
a(L2557802879934417600L
V824.png
p1519
tp1520
a(L6198627969196634538L
V1052.png
p1521
tp1522
a(L30634109486158019616L
V1629.png
p1523
tp1524
a(L2429817538140398528L
V682.png
p1525
tp1526
a(L866172393189126238L
V412.png
p1527
tp1528
a(L6051323515137382880L
V301.png
p1529
tp1530
a(L23924420230439248380L
V771.png
p1531
tp1532
a(L26232580822687330778L
V1377.png
p1533
tp1534
a(L15782090936086313376L
V157.png
p1535
tp1536
a(L30536088966361022970L
V1680.png
p1537
tp1538
a(L3802560050111747358L
V108.png
p1539
tp1540
a(L11856047024206590684L
V1176.png
p1541
tp1542
a(L30101969893003807360L
V1005.png
p1543
tp1544
a(L34466992345738777800L
V881.png
p1545
tp1546
a(L8878594205721525060L
V1391.png
p1547
tp1548
a(L24298684342521259812L
V696.png
p1549
tp1550
a(L9366121911695428672L
V470.png
p1551
tp1552
a(L11244714433781773598L
V374.png
p1553
tp1554
a(L13529882186764917762L
V530.png
p1555
tp1556
a(L11817348089398348480L
V1555.png
p1557
tp1558
a(L5996248505007897568L
V1375.png
p1559
tp1560
a(L18500255633253207778L
V1296.png
p1561
tp1562
a(L16629748199722616538L
V1147.png
p1563
tp1564
a(L866169642262212894L
V1285.png
p1565
tp1566
a(L6648414396924378422L
V1850.png
p1567
tp1568
a(L11457513963748012370L
V588.png
p1569
tp1570
a(L1240536634011113348L
V523.png
p1571
tp1572
a(L6871729549667995930L
V543.png
p1573
tp1574
a(L14588006543895771428L
V347.png
p1575
tp1576
a(L6630786365116494142L
V825.png
p1577
tp1578
a(L30320589838341736158L
V1379.png
p1579
tp1580
a(L21562028629224508900L
V1828.png
p1581
tp1582
a(L27362609426138587076L
V807.png
p1583
tp1584
a(L21169371777376846538L
V1929.png
p1585
tp1586
a(L5479000389666480600L
V2.png
p1587
tp1588
a(L5435435797866236196L
V915.png
p1589
tp1590
a(L2557682574272682560L
V1408.png
p1591
tp1592
a(L11241338121336238872L
V1034.png
p1593
tp1594
a(L5914996229603285540L
V461.png
p1595
tp1596
a(L36628034759448923782L
V782.png
p1597
tp1598
a(L27042642020683620880L
V1778.png
p1599
tp1600
a(L26208282755355274720L
V942.png
p1601
tp1602
a(L30119718791928793280L
V1182.png
p1603
tp1604
a(L2185724931290214680L
V998.png
p1605
tp1606
a(L1456638361850822432L
V914.png
p1607
tp1608
a(L35395485523409267104L
V288.png
p1609
tp1610
a(L35391122661237746592L
V1900.png
p1611
tp1612
a(L30099302481719947172L
V1314.png
p1613
tp1614
a(L20877200174196868800L
V308.png
p1615
tp1616
a(L35762352984984691742L
V962.png
p1617
tp1618
a(L12861036820577316452L
V723.png
p1619
tp1620
a(L6756912612027700766L
V1305.png
p1621
tp1622
a(L25564320882839186596L
V1122.png
p1623
tp1624
a(L2410233172565065636L
V553.png
p1625
tp1626
a(L31003056671306384122L
V73.png
p1627
tp1628
a(L6774902107243033022L
V924.png
p1629
tp1630
a(L11385453038845915516L
V776.png
p1631
tp1632
a(L3446480652557322202L
V96.png
p1633
tp1634
a(L36550682697648007584L
V286.png
p1635
tp1636
a(L31617795580901037818L
V331.png
p1637
tp1638
a(L34242800628316658144L
V616.png
p1639
tp1640
a(L30664649027227799234L
V938.png
p1641
tp1642
a(L34319078072596595194L
V1741.png
p1643
tp1644
a(L30320695529401059038L
V513.png
p1645
tp1646
a(L21079304562308289242L
V1949.png
p1647
tp1648
a(L31848100117165041236L
V973.png
p1649
tp1650
a(L1028310759492661530L
V8.png
p1651
tp1652
a(L36584698961081032032L
V390.png
p1653
tp1654
a(L36697262896613657906L
V1856.png
p1655
tp1656
a(L11838111787244099164L
V1388.png
p1657
tp1658
a(L6775060440943966494L
V1421.png
p1659
tp1660
a(L261934251286214696L
V224.png
p1661
tp1662
a(L2448602927602780754L
V1428.png
p1663
tp1664
a(L30858941655029221086L
V1066.png
p1665
tp1666
a(L5998465331135469664L
V900.png
p1667
tp1668
a(L1165882785949449516L
V853.png
p1669
tp1670
a(L17578319907487090656L
V1204.png
p1671
tp1672
a(L31478683587883665118L
V1745.png
p1673
tp1674
a(L20881979813217017574L
V1650.png
p1675
tp1676
a(L12420129187862517278L
V1956.png
p1677
tp1678
a(L15806905919910196510L
V432.png
p1679
tp1680
a(L23557940927959529712L
V4.png
p1681
tp1682
a(L6864846448933378558L
V673.png
p1683
tp1684
a(L12771905277649152672L
V1012.png
p1685
tp1686
a(L12990912306901784092L
V1277.png
p1687
tp1688
a(L35938926137146248942L
V1479.png
p1689
tp1690
a(L6208066536950028650L
V494.png
p1691
tp1692
a(L6590934560391256160L
V1815.png
p1693
tp1694
a(L2019091696624972062L
V1024.png
p1695
tp1696
a(L26955341149040817590L
V802.png
p1697
tp1698
a(L35424951625946555584L
V1583.png
p1699
tp1700
a(L3651282466874856570L
V1529.png
p1701
tp1702
a(L2539891955676671392L
V1692.png
p1703
tp1704
a(L30262964953236031680L
V1056.png
p1705
tp1706
a(L31554821383857489600L
V617.png
p1707
tp1708
a(L30119792191815206592L
V1462.png
p1709
tp1710
a(L33089835059737930260L
V1891.png
p1711
tp1712
a(L115752356749176448L
V603.png
p1713
tp1714
a(L34243160354048876788L
V549.png
p1715
tp1716
a(L30320695391960991450L
V328.png
p1717
tp1718
a(L26225487634128334272L
V1376.png
p1719
tp1720
a(L30320763157920978526L
V437.png
p1721
tp1722
a(L11120247504228145264L
V1604.png
p1723
tp1724
a(L26210552693806296004L
V1664.png
p1725
tp1726
a(L33721655655275571748L
V1429.png
p1727
tp1728
a(L36628614063902398842L
V414.png
p1729
tp1730
a(L30245795941187734208L
V709.png
p1731
tp1732
a(L30318439142561514746L
V1330.png
p1733
tp1734
a(L6568016470453075260L
V1613.png
p1735
tp1736
a(L1496307346922591834L
V433.png
p1737
tp1738
a(L15276324987360205274L
V1067.png
p1739
tp1740
a(L10107486260785655838L
V1342.png
p1741
tp1742
a(L16014780134172539416L
V934.png
p1743
tp1744
a(L6625804732533308768L
V896.png
p1745
tp1746
a(L21039320083117821632L
V1706.png
p1747
tp1748
a(L6629660542518694174L
V28.png
p1749
tp1750
a(L5116310932108412222L
V1003.png
p1751
tp1752
a(L22045747369716958288L
V1297.png
p1753
tp1754
a(L6873983669196036410L
V424.png
p1755
tp1756
a(L28069737840573925312L
V525.png
p1757
tp1758
a(L27200525753827154788L
V983.png
p1759
tp1760
a(L6819658866236864798L
V1762.png
p1761
tp1762
a(L12990749501852587550L
V762.png
p1763
tp1764
a(L36028795157866598370L
V1124.png
p1765
tp1766
a(L2136185338475852060L
V1962.png
p1767
tp1768
a(L24497097694478813344L
V724.png
p1769
tp1770
a(L19129713306164225572L
V1041.png
p1771
tp1772
a(L29975962084685489532L
V235.png
p1773
tp1774
a(L6908310943382649118L
V158.png
p1775
tp1776
a(L31253632090613149636L
V1952.png
p1777
tp1778
a(L21614846838646466688L
V841.png
p1779
tp1780
a(L30406399590140807886L
V1004.png
p1781
tp1782
a(L30320693469963323102L
V548.png
p1783
tp1784
a(L3690423333865381376L
V965.png
p1785
tp1786
a(L30182895936109647390L
V1386.png
p1787
tp1788
a(L24805628763464163072L
V1083.png
p1789
tp1790
a(L8932914109968440160L
V34.png
p1791
tp1792
a(L6774620111497114942L
V182.png
p1793
tp1794
a(L18773991459319003130L
V440.png
p1795
tp1796
a(L30101696876990123232L
V518.png
p1797
tp1798
a(L30966718329407990496L
V1963.png
p1799
tp1800
a(L12717396409415317412L
V1537.png
p1801
tp1802
a(L8787618320405429028L
V1756.png
p1803
tp1804
a(L31994980901866546260L
V257.png
p1805
tp1806
a(L2017966623494779160L
V1008.png
p1807
tp1808
a(L65342164773359110L
V746.png
p1809
tp1810
a(L9568359272546276958L
V1924.png
p1811
tp1812
a(L30795192676681543604L
V380.png
p1813
tp1814
a(L30267993624735723740L
V750.png
p1815
tp1816
a(L3853934776109223440L
V1190.png
p1817
tp1818
a(L18112269130466574884L
V455.png
p1819
tp1820
a(L17394975635752277224L
V1252.png
p1821
tp1822
a(L22192523788529913408L
V405.png
p1823
tp1824
a(L5666737361625821470L
V1298.png
p1825
tp1826
a(L1947033022402476340L
V1202.png
p1827
tp1828
a(L16634786587220889556L
V1258.png
p1829
tp1830
a(L8174742013935798624L
V1318.png
p1831
tp1832
a(L6629651857822462270L
V1505.png
p1833
tp1834
a(L26642939553188040672L
V885.png
p1835
tp1836
a(L35397878092920417158L
V1656.png
p1837
tp1838
a(L919087517704433948L
V1146.png
p1839
tp1840
a(L33030131068029069554L
V676.png
p1841
tp1842
a(L14719022785087509950L
V1729.png
p1843
tp1844
a(L4845737172056498534L
V641.png
p1845
tp1846
a(L30320695529401059038L
V1540.png
p1847
tp1848
a(L24211065583143751304L
V1996.png
p1849
tp1850
a(L8115087897271625632L
V1434.png
p1851
tp1852
a(L1396985376945392036L
V489.png
p1853
tp1854
a(L18110074362990677408L
V253.png
p1855
tp1856
a(L2014143592225557760L
V1007.png
p1857
tp1858
a(L31512808817454192212L
V1286.png
p1859
tp1860
a(L12972937530556651100L
V1654.png
p1861
tp1862
a(L9172769888631265566L
V1648.png
p1863
tp1864
a(L5436322130180340960L
V550.png
p1865
tp1866
a(L30026064218440804844L
V324.png
p1867
tp1868
a(L26180698623411187364L
V1911.png
p1869
tp1870
a(L5854596098625521792L
V1852.png
p1871
tp1872
a(L14087029996132390976L
V1912.png
p1873
tp1874
a(L12520289685949678876L
V1759.png
p1875
tp1876
a(L24067308421684475198L
V1941.png
p1877
tp1878
a(L29093153760284954304L
V1834.png
p1879
tp1880
a(L15299093725239007030L
V1961.png
p1881
tp1882
a(L31473617070530856662L
V206.png
p1883
tp1884
a(L30320693777053353694L
V1670.png
p1885
tp1886
a(L16940154331664631970L
V26.png
p1887
tp1888
a(L33125830462914886048L
V790.png
p1889
tp1890
a(L5621980060396613914L
V80.png
p1891
tp1892
a(L23342929603825721060L
V612.png
p1893
tp1894
a(L27996930359077450460L
V368.png
p1895
tp1896
a(L31562628755616020474L
V788.png
p1897
tp1898
a(L12975408878547572350L
V1966.png
p1899
tp1900
a(L25489174132017491520L
V1882.png
p1901
tp1902
a(L30320694429888382686L
V593.png
p1903
tp1904
a(L15374622987847468028L
V1765.png
p1905
tp1906
a(L25019543422454135200L
V809.png
p1907
tp1908
a(L28680421988457328858L
V854.png
p1909
tp1910
a(L1288897466551992228L
V118.png
p1911
tp1912
a(L24907019251978561826L
V686.png
p1913
tp1914
a(L6630777749412034844L
V1387.png
p1915
tp1916
a(L8195026133514937580L
V1760.png
p1917
tp1918
a(L30320550280048514782L
V1011.png
p1919
tp1920
a(L25713495518448813790L
V565.png
p1921
tp1922
a(L19710777555560878178L
V1719.png
p1923
tp1924
a(L29484988187155280614L
V596.png
p1925
tp1926
a(L10089542231020385310L
V574.png
p1927
tp1928
a(L2019091696624939294L
V887.png
p1929
tp1930
a(L6083907052930078994L
V1166.png
p1931
tp1932
a(L32032243723551483484L
V278.png
p1933
tp1934
a(L25072309117594066276L
V93.png
p1935
tp1936
a(L30100842567385736994L
V1171.png
p1937
tp1938
a(L30320665778296784590L
V79.png
p1939
tp1940
a(L7439550275574696674L
V767.png
p1941
tp1942
a(L14103556989824953312L
V1937.png
p1943
tp1944
a(L6777153395955609914L
V36.png
p1945
tp1946
a(L11873951455690393304L
V1346.png
p1947
tp1948
a(L22715000856314278240L
V949.png
p1949
tp1950
a(L28014913545229144826L
V557.png
p1951
tp1952
a(L4124923765857086752L
V529.png
p1953
tp1954
a(L20872678322837572546L
V1663.png
p1955
tp1956
a(L30290362254150698970L
V194.png
p1957
tp1958
a(L11241266416873714204L
V57.png
p1959
tp1960
a(L18101757004670456482L
V1325.png
p1961
tp1962
a(L15815512025787715880L
V248.png
p1963
tp1964
a(L32338654046938056446L
V980.png
p1965
tp1966
a(L11814815290233114304L
V366.png
p1967
tp1968
a(L5474711178947029472L
V1769.png
p1969
tp1970
a(L30320695391962105566L
V707.png
p1971
tp1972
a(L16098105679605285092L
V285.png
p1973
tp1974
a(L5996286373451495712L
V187.png
p1975
tp1976
a(L36234308401194552918L
V1845.png
p1977
tp1978
a(L31783808961840721072L
V6.png
p1979
tp1980
a(L36539503446725153416L
V37.png
p1981
tp1982
a(L6774611876975554878L
V153.png
p1983
tp1984
a(L6392512565640321700L
V307.png
p1985
tp1986
a(L24089184087238292222L
V1046.png
p1987
tp1988
a(L30118876053579943568L
V1514.png
p1989
tp1990
a(L17982305028426772890L
V136.png
p1991
tp1992
a(L2017965796713935134L
V1575.png
p1993
tp1994
a(L33720463233288129028L
V572.png
p1995
tp1996
a(L9161683590946253288L
V1681.png
p1997
tp1998
a(L16005582243569676702L
V801.png
p1999
tp2000
a(L6788965879804885380L
V1718.png
p2001
tp2002
a(L6703547637054126386L
V298.png
p2003
tp2004
a(L36586888844578810082L
V1588.png
p2005
tp2006
a(L25644785509519322852L
V995.png
p2007
tp2008
a(L2574833421121211072L
V880.png
p2009
tp2010
a(L2167148269883846992L
V712.png
p2011
tp2012
a(L736268855702420772L
V81.png
p2013
tp2014
a(L22048283359211904804L
V545.png
p2015
tp2016
a(L19742415215627324230L
V428.png
p2017
tp2018
a(L16967045603319536096L
V1070.png
p2019
tp2020
a(L36596415888252128448L
V1933.png
p2021
tp2022
a(L18603807504986213164L
V1615.png
p2023
tp2024
a(L8355204307118113024L
V1639.png
p2025
tp2026
a(L31956414774138359072L
V618.png
p2027
tp2028
a(L29669347150813426018L
V1093.png
p2029
tp2030
a(L866169006334423326L
V1982.png
p2031
tp2032
a(L30245689939177532144L
V352.png
p2033
tp2034
a(L30302606377779803870L
V1598.png
p2035
tp2036
a(L31398812750825801448L
V1085.png
p2037
tp2038
a(L18138164488198356320L
V1132.png
p2039
tp2040
a(L30320695396256024286L
V460.png
p2041
tp2042
a(L30392753123437872862L
V813.png
p2043
tp2044
a(L6773655291121905950L
V906.png
p2045
tp2046
a(L26248346283349935838L
V1186.png
p2047
tp2048
a(L8013637423933230376L
V1984.png
p2049
tp2050
a(L23328314977957935200L
V1503.png
p2051
tp2052
a(L12930727525684563456L
V1345.png
p2053
tp2054
a(L10143594193344574746L
V812.png
p2055
tp2056
a(L21994169833341800096L
V1541.png
p2057
tp2058
a(L27380683271009455424L
V1459.png
p2059
tp2060
a(L31473663213241402908L
V1323.png
p2061
tp2062
a(L27601713127500295098L
V87.png
p2063
tp2064
a(L30320974805353465566L
V1138.png
p2065
tp2066
a(L11475525068051003770L
V376.png
p2067
tp2068
a(L24536415042888008154L
V471.png
p2069
tp2070
a(L11743345970345674464L
V958.png
p2071
tp2072
a(L6774611468953598262L
V7.png
p2073
tp2074
a(L24120930008920648122L
V1257.png
p2075
tp2076
a(L6655546312559440142L
V1746.png
p2077
tp2078
a(L7979209801744200684L
V1708.png
p2079
tp2080
a(L30302972927469945566L
V1632.png
p2081
tp2082
a(L23307718171029040032L
V326.png
p2083
tp2084
a(L7808961064645897232L
V1075.png
p2085
tp2086
a(L28936195107080326216L
V1399.png
p2087
tp2088
a(L31473663179889346228L
V1861.png
p2089
tp2090
a(L36586846236121399264L
V1728.png
p2091
tp2092
a(L36340458698684059184L
V768.png
p2093
tp2094
a(L2596529493822780958L
V1563.png
p2095
tp2096
a(L30320695529400010462L
V1485.png
p2097
tp2098
a(L5421429121102571698L
V439.png
p2099
tp2100
a(L34142681579244936726L
V1390.png
p2101
tp2102
a(L6783627869907335486L
V1622.png
p2103
tp2104
a(L23908113800303797442L
V1039.png
p2105
tp2106
a(L8193998311312739008L
V857.png
p2107
tp2108
a(L35491120032403207546L
V564.png
p2109
tp2110
a(L4860172416488401252L
V1248.png
p2111
tp2112
a(L31474169950934763134L
V24.png
p2113
tp2114
a(L30263834160098102976L
V1099.png
p2115
tp2116
a(L10459608131183201312L
V950.png
p2117
tp2118
a(L11385382790073102450L
V1025.png
p2119
tp2120
a(L6591981284154820710L
V526.png
p2121
tp2122
a(L35455891211930306334L
V256.png
p2123
tp2124
a(L11259396610867893530L
V729.png
p2125
tp2126
a(L3750694967560476254L
V1191.png
p2127
tp2128
a(L34712402383335255426L
V1187.png
p2129
tp2130
a(L2430315848011563556L
V210.png
p2131
tp2132
a(L6571742719439497248L
V1193.png
p2133
tp2134
a(L23184450974855620810L
V808.png
p2135
tp2136
a(L11247108012832010494L
V1517.png
p2137
tp2138
a(L11404602692719646490L
V575.png
p2139
tp2140
a(L15849856543300938720L
V293.png
p2141
tp2142
a(L5640012620439590398L
V128.png
p2143
tp2144
a(L18730108391194682754L
V290.png
p2145
tp2146
a(L15137150106433933936L
V1897.png
p2147
tp2148
a(L35647174694827145186L
V1489.png
p2149
tp2150
a(L24905949022355416420L
V705.png
p2151
tp2152
a(L34839613799172398596L
V431.png
p2153
tp2154
a(L11259282690114957854L
V262.png
p2155
tp2156
a(L1467445168067351838L
V291.png
p2157
tp2158
a(L1422607957559558616L
V1469.png
p2159
tp2160
a(L29684279493994962336L
V1134.png
p2161
tp2162
a(L33772755109316104084L
V294.png
p2163
tp2164
a(L22043621134358531718L
V226.png
p2165
tp2166
a(L31005284352529564414L
V1786.png
p2167
tp2168
a(L22750695245131738852L
V1568.png
p2169
tp2170
a(L15450805344456257822L
V1319.png
p2171
tp2172
a(L4851307186771879972L
V781.png
p2173
tp2174
a(L35983396282218507232L
V110.png
p2175
tp2176
a(L2055119428491948350L
V121.png
p2177
tp2178
a(L4861436974109849692L
V154.png
p2179
tp2180
a(L24461987852719210692L
V1612.png
p2181
tp2182
a(L23646913431477414710L
V1886.png
p2183
tp2184
a(L31253499754348463808L
V1322.png
p2185
tp2186
a(L19349948154379838206L
V161.png
p2187
tp2188
a(L4789110199292152224L
V463.png
p2189
tp2190
a(L26520151379207530348L
V643.png
p2191
tp2192
a(L2180896560907644858L
V858.png
p2193
tp2194
a(L14427072839724529952L
V1228.png
p2195
tp2196
a(L6625644484606188836L
V1638.png
p2197
tp2198
a(L34894166752039376602L
V598.png
p2199
tp2200
a(L11278492427415204120L
V1771.png
p2201
tp2202
a(L4734761226239506748L
V131.png
p2203
tp2204
a(L31362773543810128736L
V397.png
p2205
tp2206
a(L10669317682432144084L
V1945.png
p2207
tp2208
a(L18383439612384062212L
V1733.png
p2209
tp2210
a(L2017965798865580350L
V638.png
p2211
tp2212
a(L5641964830719260990L
V1587.png
p2213
tp2214
a(L10644000628677704164L
V1478.png
p2215
tp2216
a(L4881619833579006176L
V1332.png
p2217
tp2218
a(L11261534215050998814L
V274.png
p2219
tp2220
a(L36566878273349536224L
V370.png
p2221
tp2222
a(L23883334896697733028L
V1687.png
p2223
tp2224
a(L23289473250656930408L
V247.png
p2225
tp2226
a(L21151436962329559770L
V728.png
p2227
tp2228
a(L4754128462444972672L
V1671.png
p2229
tp2230
a(L1220460160008831088L
V389.png
p2231
tp2232
a(L26784890555758988740L
V1103.png
p2233
tp2234
a(L2111414249887961374L
V1740.png
p2235
tp2236
a(L34161857567583074342L
V1288.png
p2237
tp2238
a(L6775886861367030078L
V757.png
p2239
tp2240
a(L498984758873654138L
V56.png
p2241
tp2242
a(L20300701880561651524L
V1443.png
p2243
tp2244
a(L36838887082270288868L
V1965.png
p2245
tp2246
a(L28002715292640490718L
V1624.png
p2247
tp2248
a(L12909529569659607904L
V1744.png
p2249
tp2250
a(L14908282348885553434L
V733.png
p2251
tp2252
a(L30303010366698063582L
V1135.png
p2253
tp2254
a(L28533599983502028320L
V1543.png
p2255
tp2256
a(L30321887405908002526L
V126.png
p2257
tp2258
a(L28943144762456790258L
V761.png
p2259
tp2260
a(L6630505328222187806L
V576.png
p2261
tp2262
a(L32155767138695882482L
V1104.png
p2263
tp2264
a(L11874514431683101400L
V1121.png
p2265
tp2266
a(L6651088476878205726L
V501.png
p2267
tp2268
a(L5995931226871372080L
V454.png
p2269
tp2270
a(L30109561126345428678L
V482.png
p2271
tp2272
a(L2234156201082829074L
V640.png
p2273
tp2274
a(L6050505571949141564L
V1884.png
p2275
tp2276
a(L15796342565303122208L
V1523.png
p2277
tp2278
a(L36827634709041274626L
V336.png
p2279
tp2280
a(L26030456812921843488L
V44.png
p2281
tp2282
a(L7745920946826795044L
V284.png
p2283
tp2284
a(L21097322845080225494L
V228.png
p2285
tp2286
a(L36577697900237939460L
V570.png
p2287
tp2288
a(L6033403137776122720L
V1308.png
p2289
tp2290
a(L11241337835716161822L
V1736.png
p2291
tp2292
a(L7799990855014508934L
V1591.png
p2293
tp2294
a(L35927182217215050482L
V282.png
p2295
tp2296
a(L30320695391961056990L
V478.png
p2297
tp2298
a(L1420503224120208480L
V483.png
p2299
tp2300
a(L9499058092203502400L
V1906.png
p2301
tp2302
a(L2592875262038805698L
V165.png
p2303
tp2304
a(L13136230122344781332L
V233.png
p2305
tp2306
a(L36026134134640494880L
V1547.png
p2307
tp2308
a(L1981491673507776514L
V1048.png
p2309
tp2310
a(L6872859298025897788L
V898.png
p2311
tp2312
a(L15813130661055854944L
V1723.png
p2313
tp2314
a(L16813640430858315782L
V912.png
p2315
tp2316
a(L1119780071398519082L
V1309.png
p2317
tp2318
a(L27325274821608008448L
V1320.png
p2319
tp2320
a(L234145600395958624L
V1516.png
p2321
tp2322
a(L35395626261434493408L
V1073.png
p2323
tp2324
a(L27939071461340883648L
V1931.png
p2325
tp2326
a(L12991030821170550366L
V772.png
p2327
tp2328
a(L1027173806487449886L
V1971.png
p2329
tp2330
a(L7803694972477420830L
V1683.png
p2331
tp2332
a(L33127563877039075792L
V209.png
p2333
tp2334
a(L30320690993914545886L
V359.png
p2335
tp2336
a(L36604893216588360160L
V119.png
p2337
tp2338
a(L34278815063445817826L
V306.png
p2339
tp2340
a(L13444234959193338276L
V1374.png
p2341
tp2342
a(L2198059773428314206L
V1406.png
p2343
tp2344
a(L5645052262859683130L
V971.png
p2345
tp2346
a(L30300565534975842002L
V910.png
p2347
tp2348
a(L15219458757648408866L
V446.png
p2349
tp2350
a(L11277367182490906654L
V404.png
p2351
tp2352
a(L1278668678740299332L
V215.png
p2353
tp2354
a(L26805317431530839776L
V1841.png
p2355
tp2356
a(L2036833928152913758L
V1521.png
p2357
tp2358
a(L20424946554974723876L
V1283.png
p2359
tp2360
a(L25036614985498713380L
V1803.png
p2361
tp2362
a(L15796123410848705824L
V1290.png
p2363
tp2364
a(L10448638328454574388L
V1311.png
p2365
tp2366
a(L22174571016912537920L
V633.png
p2367
tp2368
a(L873981174295884412L
V909.png
p2369
tp2370
a(L26172179457589012900L
V871.png
p2371
tp2372
a(L5133279455576013072L
V730.png
p2373
tp2374
a(L19495118873364869626L
V92.png
p2375
tp2376
a(L6572715094085606242L
V1877.png
p2377
tp2378
a(L21095905655541786084L
V1611.png
p2379
tp2380
a(L5480107915769557272L
V1384.png
p2381
tp2382
a(L26172148921426442912L
V1907.png
p2383
tp2384
a(L30320695546848248536L
V1423.png
p2385
tp2386
a(L6892694542304553498L
V1768.png
p2387
tp2388
a(L34279920356149948642L
V385.png
p2389
tp2390
a(L30320695426320795358L
V1610.png
p2391
tp2392
a(L35620807305134779060L
V1618.png
p2393
tp2394
a(L6500801097567267328L
V1043.png
p2395
tp2396
a(L22734070184735820428L
V1917.png
p2397
tp2398
a(L34242566471749631780L
V474.png
p2399
tp2400
a(L31437583838404511454L
V25.png
p2401
tp2402
a(L22175289629663021890L
V1111.png
p2403
tp2404
a(L30325198048860112606L
V51.png
p2405
tp2406
a(L31845529576306724132L
V784.png
p2407
tp2408
a(L1439996766143565344L
V33.png
p2409
tp2410
a(L9167017186089728314L
V452.png
p2411
tp2412
a(L17579402911701682464L
V350.png
p2413
tp2414
a(L27049521839469415396L
V911.png
p2415
tp2416
a(L2414692615925264356L
V1824.png
p2417
tp2418
a(L31472417684737853082L
V1287.png
p2419
tp2420
a(L23964993946982822334L
V803.png
p2421
tp2422
a(L15736603109781133920L
V76.png
p2423
tp2424
a(L16823821643140976332L
V1892.png
p2425
tp2426
a(L32139174733978940124L
V166.png
p2427
tp2428
a(L6216209517332667198L
V1735.png
p2429
tp2430
a(L6608986441077914080L
V957.png
p2431
tp2432
a(L6630786373706330398L
V786.png
p2433
tp2434
a(L8916156593336638466L
V280.png
p2435
tp2436
a(L26587621463082323936L
V953.png
p2437
tp2438
a(L23850780363478517952L
V1938.png
p2439
tp2440
a(L24072867131496479022L
V1715.png
p2441
tp2442
a(L3115530991703322244L
V1787.png
p2443
tp2444
a(L22172248796277951332L
V317.png
p2445
tp2446
a(L23166391579850723040L
V1206.png
p2447
tp2448
a(L28680404107350323678L
V697.png
p2449
tp2450
a(L2019092248528269406L
V988.png
p2451
tp2452
a(L30320694447068186590L
V1688.png
p2453
tp2454
a(L30320691133501245150L
V785.png
p2455
tp2456
a(L30795235800276266976L
V1371.png
p2457
tp2458
a(L5535229015700367678L
V15.png
p2459
tp2460
a(L11259396920172656154L
V536.png
p2461
tp2462
a(L5185565114860731296L
V1273.png
p2463
tp2464
a(L6790655418072117566L
V156.png
p2465
tp2466
a(L6050302591482616352L
V783.png
p2467
tp2468
a(L28697213817248842682L
V95.png
p2469
tp2470
a(L34297997425748177712L
V948.png
p2471
tp2472
a(L6667812223803270104L
V1451.png
p2473
tp2474
a(L6774904233251942718L
V1764.png
p2475
tp2476
a(L36007992225834428832L
V27.png
p2477
tp2478
a(L30325196384547440350L
V383.png
p2479
tp2480
a(L30099874230216418822L
V1382.png
p2481
tp2482
a(L7094223571454185156L
V1569.png
p2483
tp2484
a(L5659999769008028600L
V1519.png
p2485
tp2486
a(L9100729877111287838L
V552.png
p2487
tp2488
a(L18011115835637855456L
V77.png
p2489
tp2490
a(L28759366835267527166L
V1818.png
p2491
tp2492
a(L2445098782941695636L
V1395.png
p2493
tp2494
a(L35974404757976672898L
V1214.png
p2495
tp2496
a(L13565244156103656990L
V1609.png
p2497
tp2498
a(L28019465534885672668L
V419.png
p2499
tp2500
a(L11260486922709349406L
V1157.png
p2501
tp2502
a(L18774736446417089022L
V1987.png
p2503
tp2504
a(L34932372768915227356L
V212.png
p2505
tp2506
a(L2344322013901557444L
V1992.png
p2507
tp2508
a(L30302633320388233180L
V325.png
p2509
tp2510
a(L17525744931226438624L
V1972.png
p2511
tp2512
a(L6465960624298618208L
V979.png
p2513
tp2514
a(L10742714994758412532L
V1212.png
p2515
tp2516
a(L231401185624091040L
V1923.png
p2517
tp2518
a(L30320893485237744350L
V595.png
p2519
tp2520
a(L28015123563761178334L
V1998.png
p2521
tp2522
a(L20877188634412502722L
V78.png
p2523
tp2524
a(L5152112811120479202L
V1576.png
p2525
tp2526
a(L21097323355106215642L
V961.png
p2527
tp2528
a(L4380082076790068766L
V669.png
p2529
tp2530
a(L18890622781093362426L
V1747.png
p2531
tp2532
a(L31099894417634310340L
V135.png
p2533
tp2534
a(L14847524883710947646L
V1272.png
p2535
tp2536
a(L21469385988150970540L
V796.png
p2537
tp2538
a(L35066926424628219636L
V720.png
p2539
tp2540
a(L12393612600254058208L
V1712.png
p2541
tp2542
a(L8338340143456288352L
V180.png
p2543
tp2544
a(L1278668403597594176L
V1766.png
p2545
tp2546
a(L2312985931915945780L
V504.png
p2547
tp2548
a(L30112165048224770528L
V305.png
p2549
tp2550
a(L35386689708726581540L
V1453.png
p2551
tp2552
a(L15853912694135764286L
V678.png
p2553
tp2554
a(L26392300790818837918L
V795.png
p2555
tp2556
a(L11175406166555701292L
V698.png
p2557
tp2558
a(L30102830566847645188L
V560.png
p2559
tp2560
a(L32944983591551432918L
V1484.png
p2561
tp2562
a(L6792907330628661566L
V316.png
p2563
tp2564
a(L21039611777965018816L
V1235.png
p2565
tp2566
a(L11817799135628472924L
V1061.png
p2567
tp2568
a(L6635281344744322312L
V468.png
p2569
tp2570
a(L6666805224654778686L
V815.png
p2571
tp2572
a(L30320695533696026334L
V1026.png
p2573
tp2574
a(L12153584413422114372L
V547.png
p2575
tp2576
a(L11799067059690130944L
V508.png
p2577
tp2578
a(L4862544603110927780L
V1668.png
p2579
tp2580
a(L34877322682434172062L
V632.png
p2581
tp2582
a(L2168202019847896356L
V354.png
p2583
tp2584
a(L30320693880132568798L
V292.png
p2585
tp2586
a(L32531420056813194152L
V734.png
p2587
tp2588
a(L2430306002017111168L
V295.png
p2589
tp2590
a(L3728096809725423298L
V1432.png
p2591
tp2592
a(L11873950918819546826L
V465.png
p2593
tp2594
a(L21636936296642683322L
V1055.png
p2595
tp2596
a(L30044348159632273122L
V1679.png
p2597
tp2598
a(L30114089186050131552L
V1415.png
p2599
tp2600
a(L30320690998209513214L
V562.png
p2601
tp2602
a(L22027735363788435044L
V541.png
p2603
tp2604
a(L5415248558291906840L
V1042.png
p2605
tp2606
a(L6706784735676379180L
V959.png
p2607
tp2608
a(L11907919595824711214L
V799.png
p2609
tp2610
a(L27954973349624082336L
V1695.png
p2611
tp2612
a(L36010485043074321344L
V774.png
p2613
tp2614
a(L21079585634086585050L
V821.png
p2615
tp2616
a(L15853024333036589340L
V1098.png
p2617
tp2618
a(L21039601681335766722L
V775.png
p2619
tp2620
a(L30263783731823824836L
V1437.png
p2621
tp2622
a(L31731339797972044296L
V1487.png
p2623
tp2624
a(L2448593709495143626L
V448.png
p2625
tp2626
a(L30320765833719678686L
V1280.png
p2627
tp2628
a(L3170605826344073118L
V395.png
p2629
tp2630
a(L36604059908067557152L
V1661.png
p2631
tp2632
a(L31147292702825090652L
V886.png
p2633
tp2634
a(L1283284113215757630L
V1561.png
p2635
tp2636
a(L6351166651071184180L
V846.png
p2637
tp2638
a(L25055747729033227200L
V1350.png
p2639
tp2640
a(L6549209050816694624L
V1775.png
p2641
tp2642
a(L35711101262666934512L
V626.png
p2643
tp2644
a(L19468288918893181012L
V534.png
p2645
tp2646
a(L11260487429247047198L
V1295.png
p2647
tp2648
a(L30320694983940212442L
V1560.png
p2649
tp2650
a(L9511955576662897374L
V137.png
p2651
tp2652
a(L5421649125730839328L
V1870.png
p2653
tp2654
a(L6648836606201802778L
V159.png
p2655
tp2656
a(L23895540065403218366L
V1370.png
p2657
tp2658
a(L5436322679936153824L
V388.png
p2659
tp2660
a(L25907127311963331000L
V1567.png
p2661
tp2662
a(L10683041495168422174L
V138.png
p2663
tp2664
a(L34853618799709658822L
V1108.png
p2665
tp2666
a(L24869895963242327460L
V1686.png
p2667
tp2668
a(L5126586314065709406L
V31.png
p2669
tp2670
a(L30320695529401059038L
V848.png
p2671
tp2672
a(L27994583470010107610L
V625.png
p2673
tp2674
a(L25056578166565796192L
V1635.png
p2675
tp2676
a(L31435824551356827416L
V1887.png
p2677
tp2678
a(L30320695529401059038L
V1660.png
p2679
tp2680
a(L30302799894026204892L
V351.png
p2681
tp2682
a(L19287690464395520708L
V740.png
p2683
tp2684
a(L13110020160238569156L
V1608.png
p2685
tp2686
a(L19347819914370822366L
V1037.png
p2687
tp2688
a(L29112749771419103292L
V490.png
p2689
tp2690
a(L10955046992042251286L
V1988.png
p2691
tp2692
a(L31415631951989233352L
V1781.png
p2693
tp2694
a(L35413807342066495104L
V1823.png
p2695
tp2696
a(L16005874140385195838L
V1734.png
p2697
tp2698
a(L15650924046719547668L
V752.png
p2699
tp2700
a(L6051473052795850688L
V1264.png
p2701
tp2702
a(L30101969892416343682L
V1780.png
p2703
tp2704
a(L18158734344335078708L
V1947.png
p2705
tp2706
a(L36380935447060659492L
V477.png
p2707
tp2708
a(L25534490307419255998L
V604.png
p2709
tp2710
a(L31398814003815440064L
V1188.png
p2711
tp2712
a(L36562148252406139944L
V793.png
p2713
tp2714
a(L25036282795600347108L
V378.png
p2715
tp2716
a(L6776738813886413290L
V493.png
p2717
tp2718
a(L18103992137620281892L
V237.png
p2719
tp2720
a(L20262291683682240552L
V496.png
p2721
tp2722
a(L921030255394193694L
V1087.png
p2723
tp2724
a(L11242472494139224350L
V798.png
p2725
tp2726
a(L8355169815571884864L
V1168.png
p2727
tp2728
a(L11404752447348773690L
V663.png
p2729
tp2730
a(L2021273727911671070L
V1069.png
p2731
tp2732
a(L21039548767326424256L
V18.png
p2733
tp2734
a(L18119358566389567010L
V1402.png
p2735
tp2736
a(L12813737427841206340L
V1359.png
p2737
tp2738
a(L5477856604504469982L
V101.png
p2739
tp2740
a(L845309005881363616L
V1100.png
p2741
tp2742
a(L21042297063799796446L
V654.png
p2743
tp2744
a(L5660250895842291998L
V888.png
p2745
tp2746
a(L3149034483995012480L
V1431.png
p2747
tp2748
a(L16015085560918208532L
V240.png
p2749
tp2750
a(L24481205089564577746L
V1950.png
p2751
tp2752
a(L580120166751351086L
V1577.png
p2753
tp2754
a(L5907375061760723264L
V358.png
p2755
tp2756
a(L13566084182484293406L
V563.png
p2757
tp2758
a(L30023449159134783388L
V342.png
p2759
tp2760
a(L2163215577710375230L
V1196.png
p2761
tp2762
a(L2013835731364890976L
V323.png
p2763
tp2764
a(L30320695529400010462L
V1336.png
p2765
tp2766
a(L33089800096512658848L
V766.png
p2767
tp2768
a(L8914405588022492000L
V1777.png
p2769
tp2770
a(L30118595950662045376L
V963.png
p2771
tp2772
a(L5995227955772676512L
V1143.png
p2773
tp2774
a(L5513884904381493516L
V517.png
p2775
tp2776
a(L35489732191576654074L
V1361.png
p2777
tp2778
a(L30023581522383710950L
V1572.png
p2779
tp2780
a(L11400742488988135492L
V311.png
p2781
tp2782
a(L31379771364518840500L
V86.png
p2783
tp2784
a(L30302676746534233820L
V1669.png
p2785
tp2786
a(L36269339291124828012L
V1316.png
p2787
tp2788
a(L11781045151331937152L
V677.png
p2789
tp2790
a(L23183180731856407158L
V1928.png
p2791
tp2792
a(L22571686114660380544L
V920.png
p2793
tp2794
a(L24068575098002745854L
V1902.png
p2795
tp2796
a(L6589857579630295328L
V725.png
p2797
tp2798
a(L1523149327727819936L
V978.png
p2799
tp2800
a(L233840331839392224L
V139.png
p2801
tp2802
a(L19873987690621521316L
V178.png
p2803
tp2804
a(L27996912352427061852L
V1131.png
p2805
tp2806
a(L12951973055004560096L
V88.png
p2807
tp2808
a(L16373547749491769312L
V35.png
p2809
tp2810
a(L14870087200424670394L
V1160.png
p2811
tp2812
a(L14402927130313070204L
V690.png
p2813
tp2814
a(L22890308501818499884L
V718.png
p2815
tp2816
a(L5064433695251863550L
V1030.png
p2817
tp2818
a(L5910791645313658938L
V1918.png
p2819
tp2820
a(L35433906969903262624L
V273.png
p2821
tp2822
a(L11763373935438055650L
V1702.png
p2823
tp2824
a(L4718547570438098624L
V506.png
p2825
tp2826
a(L30320695529400010458L
V357.png
p2827
tp2828
a(L28715042837176791260L
V716.png
p2829
tp2830
a(L36008483124390853536L
V919.png
p2831
tp2832
a(L10126514958805054174L
V1080.png
p2833
tp2834
a(L6630778024289906974L
V249.png
p2835
tp2836
a(L15814212131889793408L
V1394.png
p2837
tp2838
a(L35974406700643011590L
V14.png
p2839
tp2840
a(L16033056234316116858L
V1672.png
p2841
tp2842
a(L25690950998854993626L
V1427.png
p2843
tp2844
a(L6774895172817068446L
V601.png
p2845
tp2846
a(L23344028101348344512L
V1263.png
p2847
tp2848
a(L30321887332358719194L
V1353.png
p2849
tp2850
a(L30431151200015517206L
V1940.png
p2851
tp2852
a(L2773016429014780626L
V1179.png
p2853
tp2854
a(L15813846992051132704L
V185.png
p2855
tp2856
a(L6630540610309009726L
V270.png
p2857
tp2858
a(L31246577096805576228L
V1163.png
p2859
tp2860
a(L30284732707912124158L
V300.png
p2861
tp2862
a(L5628735420914480442L
V250.png
p2863
tp2864
a(L11856066264015943388L
V480.png
p2865
tp2866
a(L36010311542699878688L
V231.png
p2867
tp2868
a(L15796054699382561120L
V1053.png
p2869
tp2870
a(L4898711291145965024L
V1749.png
p2871
tp2872
a(L5083679163504993274L
V1620.png
p2873
tp2874
a(L30898277665452165080L
V1553.png
p2875
tp2876
a(L5308200839552924452L
V1738.png
p2877
tp2878
a(L36008196630778440416L
V1216.png
p2879
tp2880
a(L30041286569851864788L
V205.png
p2881
tp2882
a(L30283861483414104798L
V1806.png
p2883
tp2884
a(L3685796549410114272L
V113.png
p2885
tp2886
a(L30325193635765323478L
V254.png
p2887
tp2888
a(L26782595609261133474L
V1995.png
p2889
tp2890
a(L31456119299612700388L
V1813.png
p2891
tp2892
a(L23386343965263988474L
V1224.png
p2893
tp2894
a(L30320690993914545882L
V449.png
p2895
tp2896
a(L24332004526636878852L
V1310.png
p2897
tp2898
a(L9312883510367905924L
V116.png
p2899
tp2900
a(L28014843638194997240L
V512.png
p2901
tp2902
a(L12988785739761489500L
V400.png
p2903
tp2904
a(L3224657812332221982L
V1040.png
p2905
tp2906
a(L26203793240737606592L
V198.png
p2907
tp2908
a(L5621978993877416238L
V38.png
p2909
tp2910
a(L5996071272576338408L
V418.png
p2911
tp2912
a(L2592872957000011336L
V207.png
p2913
tp2914
a(L10511743118888128228L
V1888.png
p2915
tp2916
a(L34242772505071864480L
V1804.png
p2917
tp2918
a(L888688225655533854L
V21.png
p2919
tp2920
a(L30116625072999024198L
V721.png
p2921
tp2922
a(L14120902898134571364L
V1219.png
p2923
tp2924
a(L30320695323241580286L
V1.png
p2925
tp2926
a(L19926389561620768622L
V1693.png
p2927
tp2928
a(L30571827527601129194L
V1324.png
p2929
tp2930
a(L6774761339421471038L
V304.png
p2931
tp2932
a(L5832920620571707680L
V1968.png
p2933
tp2934
a(L11817039116965137920L
V239.png
p2935
tp2936
a(L30858921520147039902L
V964.png
p2937
tp2938
a(L15777013626830842912L
V974.png
p2939
tp2940
a(L12975153598473253468L
V150.png
p2941
tp2942
a(L6639672600794903398L
V1889.png
p2943
tp2944
a(L30209731642680572800L
V369.png
p2945
tp2946
a(L5635762488059722016L
V1659.png
p2947
tp2948
a(L15738848546431617120L
V1422.png
p2949
tp2950
a(L24229295832591386656L
V1491.png
p2951
tp2952
a(L140524324795369920L
V364.png
p2953
tp2954
a(L36303726537181410772L
V1863.png
p2955
tp2956
a(L9085550366434867516L
V123.png
p2957
tp2958
a(L5926411022545610856L
V805.png
p2959
tp2960
a(L26181402417677922020L
V495.png
p2961
tp2962
a(L17527997306298158560L
V1800.png
p2963
tp2964
a(L15889051584941537566L
V1859.png
p2965
tp2966
a(L30320684980961642234L
V1867.png
p2967
tp2968
a(L35395692232200056224L
V1550.png
p2969
tp2970
a(L8878777734781881184L
V1916.png
p2971
tp2972
a(L36775826133235369630L
V1338.png
p2973
tp2974
a(L35394990706669088048L
V952.png
p2975
tp2976
a(L36566728842377906176L
V533.png
p2977
tp2978
a(L32371612874648047360L
V1154.png
p2979
tp2980
a(L20877341268134064070L
V1709.png
p2981
tp2982
a(L30320682369621264380L
V1802.png
p2983
tp2984
a(L4854497948294924384L
V835.png
p2985
tp2986
a(L11824227146986763868L
V831.png
p2987
tp2988
a(L19495800560909761530L
V1365.png
p2989
tp2990
a(L19865963376412020448L
V91.png
p2991
tp2992
a(L6497924741030377766L
V834.png
p2993
tp2994
a(L24116426408272343320L
V456.png
p2995
tp2996
a(L6781657546412536190L
V267.png
p2997
tp2998
a(L313206691238319838L
V1331.png
p2999
tp3000
a(L23346391213210820828L
V52.png
p3001
tp3002
a(L26268611800486388218L
V491.png
p3003
tp3004
a(L22771540182895468798L
V61.png
p3005
tp3006
a(L6049371069997542692L
V313.png
p3007
tp3008
a(L30302632623261353694L
V773.png
p3009
tp3010
a(L30320761433525946074L
V127.png
p3011
tp3012
a(L9568359689137194586L
V1307.png
p3013
tp3014
a(L35972211885592435680L
V373.png
p3015
tp3016
a(L30061580893470760610L
V1549.png
p3017
tp3018
a(L9200811172339808762L
V627.png
p3019
tp3020
a(L10287437438461459354L
V348.png
p3021
tp3022
a(L2448461076610404032L
V1641.png
p3023
tp3024
a(L27378506405791883104L
V789.png
p3025
tp3026
a(L5095339328348297012L
V648.png
p3027
tp3028
a(L6792909888281719098L
V1694.png
p3029
tp3030
a(L30209770463166090368L
V727.png
p3031
tp3032
a(L20823288058651787392L
V487.png
p3033
tp3034
a(L6329870713258338044L
V1536.png
p3035
tp3036
a(L1116611478821287964L
V1593.png
p3037
tp3038
a(L30320761397018461914L
V1357.png
p3039
tp3040
a(L21083952238108266180L
V1198.png
p3041
tp3042
a(L35396012739246049472L
V577.png
p3043
tp3044
a(L11304391246657392952L
V1327.png
p3045
tp3046
a(L30320694979644131038L
V1974.png
p3047
tp3048
a(L18733412389767029492L
V703.png
p3049
tp3050
a(L2019091696356471070L
V1403.png
p3051
tp3052
a(L30464810584331880158L
V597.png
p3053
tp3054
a(L8175034312764746112L
V408.png
p3055
tp3056
a(L34242957093398304270L
V622.png
p3057
tp3058
a(L34853925478292737956L
V183.png
p3059
tp3060
a(L8169085737750288146L
V792.png
p3061
tp3062
a(L6209614356186141034L
V987.png
p3063
tp3064
a(L18590646135839977152L
V661.png
p3065
tp3066
a(L34298197348141661984L
V930.png
p3067
tp3068
a(L21077344830475740926L
V213.png
p3069
tp3070
a(L6685945602528098622L
V1339.png
p3071
tp3072
a(L30303217556007790292L
V1396.png
p3073
tp3074
a(L35076492221890537178L
V1363.png
p3075
tp3076
a(L19867298044772503026L
V1545.png
p3077
tp3078
a(L1993604099500404192L
V287.png
p3079
tp3080
a(L6801695052755407134L
V590.png
p3081
tp3082
a(L35413675852881618912L
V946.png
p3083
tp3084
a(L6774919248185504570L
V1125.png
p3085
tp3086
a(L6775467245483407660L
V1542.png
p3087
tp3088
a(L26208352849146047904L
V1249.png
p3089
tp3090
a(L13027059611746731550L
V1682.png
p3091
tp3092
a(L24104632771691160058L
V748.png
p3093
tp3094
a(L23777870622410664128L
V1165.png
p3095
tp3096
a(L31473680603815646202L
V473.png
p3097
tp3098
a(L35508837925707851920L
V1874.png
p3099
tp3100
a(L26740061269107304802L
V1594.png
p3101
tp3102
a(L30302843874440983260L
V74.png
p3103
tp3104
a(L30601603587729231338L
V1397.png
p3105
tp3106
a(L30321816279641327326L
V804.png
p3107
tp3108
a(L35631449730285824864L
V216.png
p3109
tp3110
a(L11242464147943764252L
V232.png
p3111
tp3112
a(L15255622950063397220L
V451.png
p3113
tp3114
a(L1380234738415958880L
V1349.png
p3115
tp3116
a(L4863420751725357472L
V1389.png
p3117
tp3118
a(L30930998906027607640L
V1562.png
p3119
tp3120
a(L25781190634935297644L
V1130.png
p3121
tp3122
a(L5477856229768639774L
V1306.png
p3123
tp3124
a(L4141267041048413732L
V1625.png
p3125
tp3126
a(L30320694983939163870L
V540.png
p3127
tp3128
a(L36229267626745510642L
V68.png
p3129
tp3130
a(L35269402446288613024L
V1299.png
p3131
tp3132
a(L31253500313168498308L
V611.png
p3133
tp3134
a(L31417031230068805088L
V1102.png
p3135
tp3136
a(L10114852083320780806L
V1276.png
p3137
tp3138
a(L34729684906509330340L
V330.png
p3139
tp3140
a(L3690231914690145824L
V1347.png
p3141
tp3142
a(L35967449529245232548L
V16.png
p3143
tp3144
a(L25019735141271365856L
V1183.png
p3145
tp3146
a(L5656874297848042334L
V171.png
p3147
tp3148
a(L30320695529400010462L
V1088.png
p3149
tp3150
a(L13527887938260747396L
V1027.png
p3151
tp3152
a(L31990148066063605440L
V922.png
p3153
tp3154
a(L22901619727800977196L
V1676.png
p3155
tp3156
a(L30322168739687085786L
V1689.png
p3157
tp3158
a(L1154892049732875582L
V797.png
p3159
tp3160
a(L11295381029097091418L
V1498.png
p3161
tp3162
a(L34873586604682930624L
V498.png
p3163
tp3164
a(L31473470801122002654L
V1149.png
p3165
tp3166
a(L27325521518565563186L
V1023.png
p3167
tp3168
a(L31438780072685574106L
V196.png
p3169
tp3170
a(L25009131596574587684L
V976.png
p3171
tp3172
a(L30320761362658887386L
V1621.png
p3173
tp3174
a(L30470439136826861278L
V1927.png
p3175
tp3176
a(L15850371115488795488L
V1340.png
p3177
tp3178
a(L31233093300906036742L
V45.png
p3179
tp3180
a(L6031415327781177634L
V883.png
p3181
tp3182
a(L27571310542892906792L
V1239.png
p3183
tp3184
a(L30083531091590958720L
V1704.png
p3185
tp3186
a(L33019931693191981328L
V162.png
p3187
tp3188
a(L10685152622220219998L
V1774.png
p3189
tp3190
a(L30100273617375514304L
V624.png
p3191
tp3192
a(L772246452561660128L
V875.png
p3193
tp3194
a(L1010312371815919934L
V1642.png
p3195
tp3196
a(L2017965796718129470L
V556.png
p3197
tp3198
a(L27792316805647380132L
V1441.png
p3199
tp3200
a(L18379785027749941784L
V1873.png
p3201
tp3202
a(L30320690958948730622L
V621.png
p3203
tp3204
a(L8873853297117025078L
V1880.png
p3205
tp3206
a(L6563267684883250986L
V823.png
p3207
tp3208
a(L30320695533699172062L
V1986.png
p3209
tp3210
a(L31453633893899540126L
V639.png
p3211
tp3212
a(L2574552762762841824L
V555.png
p3213
tp3214
a(L30319569680965797880L
V836.png
p3215
tp3216
a(L8322342348637523144L
V1652.png
p3217
tp3218
a(L489191693613631098L
V591.png
p3219
tp3220
a(L18918868952941933022L
V867.png
p3221
tp3222
a(L21556060188481088444L
V1599.png
p3223
tp3224
a(L36083092691494142994L
V1468.png
p3225
tp3226
a(L18923302477259157982L
V1623.png
p3227
tp3228
a(L30320695391961056990L
V72.png
p3229
tp3230
a(L5058775961784092220L
V1743.png
p3231
tp3232
a(L32011722044123485978L
V1601.png
p3233
tp3234
a(L33143967378581645476L
V755.png
p3235
tp3236
a(L10250547613204295998L
V407.png
p3237
tp3238
a(L36403682848492451692L
V329.png
p3239
tp3240
a(L19502207151525671358L
V1269.png
p3241
tp3242
a(L18713078977068498240L
V1475.png
p3243
tp3244
a(L6630777768739485980L
V263.png
p3245
tp3246
a(L30061633940804313636L
V1895.png
p3247
tp3248
a(L6783627337331390782L
V1785.png
p3249
tp3250
a(L9081626842099891486L
V649.png
p3251
tp3252
a(L12966899168835194400L
V1304.png
p3253
tp3254
a(L30320695391962105566L
V544.png
p3255
tp3256
a(L11387714167307089694L
V436.png
p3257
tp3258
a(L6778273955204921658L
V112.png
p3259
tp3260
a(L9512096314147287646L
V1667.png
p3261
tp3262
a(L30320695391962105562L
V770.png
p3263
tp3264
a(L883883334003437790L
V130.png
p3265
tp3266
a(L26163246429668650468L
V1457.png
p3267
tp3268
a(L11259326380670039838L
V984.png
p3269
tp3270
a(L14756319508506907898L
V1559.png
p3271
tp3272
a(L31250116053489894916L
V1464.png
p3273
tp3274
a(L12702733359242122782L
V353.png
p3275
tp3276
a(L29996410743214261766L
V1500.png
p3277
tp3278
a(L3964927079388297262L
V869.png
p3279
tp3280
a(L30320695398403507934L
V890.png
p3281
tp3282
a(L30302861054360498268L
V975.png
p3283
tp3284
a(L34242719607759731168L
V1438.png
p3285
tp3286
a(L25692085708804073370L
V421.png
p3287
tp3288
a(L5422252437387562728L
V966.png
p3289
tp3290
a(L30320694434183349982L
V1925.png
p3291
tp3292
a(L25221505605326614814L
V201.png
p3293
tp3294
a(L10145837217772835550L
V827.png
p3295
tp3296
a(L13603663167384555132L
V940.png
p3297
tp3298
a(L31786042913061430720L
V986.png
p3299
tp3300
a(L31437552447040259418L
V1776.png
p3301
tp3302
a(L11476660443523954456L
V1885.png
p3303
tp3304
a(L24116707110816479738L
V1725.png
p3305
tp3306
a(L35433966547535855520L
V650.png
p3307
tp3308
a(L28963639788381620384L
V151.png
p3309
tp3310
a(L19492876414031308250L
V1047.png
p3311
tp3312
a(L30320693742698858206L
V1697.png
p3313
tp3314
a(L30464810599365281498L
V1606.png
p3315
tp3316
a(L5910491961051347236L
V410.png
p3317
tp3318
a(L30320695533694912250L
V1936.png
p3319
tp3320
a(L14917401630843829820L
V1997.png
p3321
tp3322
a(L6630777732232163608L
V666.png
p3323
tp3324
a(L6648801548526728986L
V23.png
p3325
tp3326
a(L19739487020707991108L
V1600.png
p3327
tp3328
a(L15219705723241265412L
V997.png
p3329
tp3330
a(L22174243408874009888L
V1509.png
p3331
tp3332
a(L6862722352321707272L
V1840.png
p3333
tp3334
a(L25844183398553433596L
V3.png
p3335
tp3336
a(L6351572130475553054L
V652.png
p3337
tp3338
a(L21169662016100140762L
V1022.png
p3339
tp3340
a(L22192512793161977636L
V334.png
p3341
tp3342
a(L5475194823950359904L
V1751.png
p3343
tp3344
a(L30320690993914545884L
V1677.png
p3345
tp3346
a(L27511993938935677572L
V1980.png
p3347
tp3348
a(L30302677158051047044L
V937.png
p3349
tp3350
a(L34710526870381266668L
V218.png
p3351
tp3352
a(L31006575042220111258L
V486.png
p3353
tp3354
a(L36267614160022390404L
V1696.png
p3355
tp3356
a(L27777770155408346636L
V1707.png
p3357
tp3358
a(L30320695396256024282L
V1174.png
p3359
tp3360
a(L35449710936443543010L
V1284.png
p3361
tp3362
a(L27361238052723706532L
V1501.png
p3363
tp3364
a(L34516504716671037886L
V1844.png
p3365
tp3366
a(L12991033287555257950L
V1120.png
p3367
tp3368
a(L3727296557112872448L
V1539.png
p3369
tp3370
a(L6463719582215630112L
V195.png
p3371
tp3372
a(L34839182950069391168L
V39.png
p3373
tp3374
a(L11252595767468437774L
V379.png
p3375
tp3376
a(L6592010835197668832L
V1059.png
p3377
tp3378
a(L18716456885950302958L
V1607.png
p3379
tp3380
a(L6780003884917330746L
V1511.png
p3381
tp3382
a(L5484610409443176766L
V1417.png
p3383
tp3384
a(L27234274984090038244L
V1627.png
p3385
tp3386
a(L4896457467325214048L
V1223.png
p3387
tp3388
a(L34728289511858162370L
V146.png
p3389
tp3390
a(L4754574463947689702L
V1112.png
p3391
tp3392
a(L15782628107397054752L
V1847.png
p3393
tp3394
a(L2163136515956551966L
V221.png
p3395
tp3396
a(L9550168280865256158L
V1091.png
p3397
tp3398
a(L20645859447729339192L
V1535.png
p3399
tp3400
a(L23256266676486678722L
V999.png
p3401
tp3402
a(L4575446246593321856L
V754.png
p3403
tp3404
a(L11259352645468729628L
V1739.png
p3405
tp3406
a(L25541196412266122966L
V1243.png
p3407
tp3408
a(L29402373142373441556L
V932.png
p3409
tp3410
a(L5477855025839814974L
V765.png
p3411
tp3412
a(L2467923373579843788L
V1062.png
p3413
tp3414
a(L35395624190723902176L
V1842.png
p3415
tp3416
a(L30433250359334784604L
V1426.png
p3417
tp3418
a(L30118727754651977426L
V1809.png
p3419
tp3420
a(L30104521656369776320L
V1392.png
p3421
tp3422
a(L23528101722062139834L
V672.png
p3423
tp3424
a(L6810932611336384814L
V542.png
p3425
tp3426
a(L1995698197701543852L
V67.png
p3427
tp3428
a(L6571966157870734240L
V606.png
p3429
tp3430
a(L4160165959181524772L
V1424.png
p3431
tp3432
a(L36584701098616055520L
V346.png
p3433
tp3434
a(L36548761457840519588L
V1230.png
p3435
tp3436
a(L15871047479283004730L
V833.png
p3437
tp3438
a(L20877179834007178950L
V863.png
p3439
tp3440
a(L30245786072166649600L
V399.png
p3441
tp3442
a(L19213714848970793224L
V1360.png
p3443
tp3444
a(L4956391944879113694L
V578.png
p3445
tp3446
a(L14510514590006528140L
V1194.png
p3447
tp3448
a(L6052910034537788702L
V202.png
p3449
tp3450
a(L31435400184706467422L
V539.png
p3451
tp3452
a(L35267345662114916534L
V411.png
p3453
tp3454
a(L5710311729489508616L
V339.png
p3455
tp3456
a(L30320690998207420158L
V371.png
p3457
tp3458
a(L34834806009962318496L
V443.png
p3459
tp3460
a(L21579891301492084224L
V851.png
p3461
tp3462
a(L36734917407930224290L
V592.png
p3463
tp3464
a(L13565301069826794590L
V1490.png
p3465
tp3466
a(L6207450897101173054L
V1199.png
p3467
tp3468
a(L25231095440563075432L
V671.png
p3469
tp3470
a(L30320726320020489946L
V1435.png
p3471
tp3472
a(L23533836311908848378L
V1942.png
p3473
tp3474
a(L2035980469031711068L
V1538.png
p3475
tp3476
a(L6783944615558191926L
V1448.png
p3477
tp3478
a(L21418764008414709388L
V1558.png
p3479
tp3480
a(L35974591468492997122L
V1260.png
p3481
tp3482
a(L870603291904717210L
V828.png
p3483
tp3484
a(L31271505873004056264L
V97.png
p3485
tp3486
a(L1442630806882562494L
V806.png
p3487
tp3488
a(L6575094781373209344L
V140.png
p3489
tp3490
a(L6374340113779841632L
V844.png
p3491
tp3492
a(L12355219760994806820L
V923.png
p3493
tp3494
a(L30325194593810286174L
V32.png
p3495
tp3496
a(L6852015794361366830L
V665.png
p3497
tp3498
a(L25221366316320176634L
V745.png
p3499
tp3500
a(L31271795337690271442L
V1201.png
p3501
tp3502
a(L21386455992604942508L
V860.png
p3503
tp3504
a(L6630777665655943198L
V1445.png
p3505
tp3506
a(L6774622474807292190L
V800.png
p3507
tp3508
a(L2017983356772135134L
V1372.png
p3509
tp3510
a(L21097652388759439102L
V1114.png
p3511
tp3512
a(L11412510639956989490L
V1566.png
p3513
tp3514
a(L16084048747130157826L
V608.png
p3515
tp3516
a(L34839752320786549888L
V1597.png
p3517
tp3518
a(L30242942749517213380L
V109.png
p3519
tp3520
a(L11047612675633954054L
V1170.png
p3521
tp3522
a(L6786724112095263004L
V104.png
p3523
tp3524
a(L31396532895010675300L
V1960.png
p3525
tp3526
a(L5476730190279588190L
V1181.png
p3527
tp3528
a(L12978403739529651482L
V1854.png
p3529
tp3530
a(L27958797156657477342L
V1926.png
p3531
tp3532
a(L36550674536673732992L
V1619.png
p3533
tp3534
a(L31407607806210840280L
V438.png
p3535
tp3536
a(L2186850785630171422L
V472.png
p3537
tp3538
a(L16871617364064479668L
V344.png
p3539
tp3540
a(L3692599177720712960L
V251.png
p3541
tp3542
a(L5065522203687490878L
V475.png
p3543
tp3544
a(L11259398852874441758L
V49.png
p3545
tp3546
a(L35433922284299118210L
V926.png
p3547
tp3548
a(L30465936482090718938L
V1455.png
p3549
tp3550
a(L6774901604731859230L
V173.png
p3551
tp3552
a(L34873311499671980448L
V1522.png
p3553
tp3554
a(L4843362085676142596L
V417.png
p3555
tp3556
a(L8880795475344775680L
V327.png
p3557
tp3558
a(L34930129627754570960L
V363.png
p3559
tp3560
a(L30116343598022313668L
V586.png
p3561
tp3562
a(L30320690929491085022L
V1655.png
p3563
tp3564
a(L23895708978959378816L
V749.png
p3565
tp3566
a(L5477858323703607580L
V897.png
p3567
tp3568
a(L5782450317353995044L
V391.png
p3569
tp3570
a(L34865687841969458816L
V1978.png
p3571
tp3572
a(L11242462652222255388L
V1685.png
p3573
tp3574
a(L1461599614464476214L
V968.png
p3575
tp3576
a(L30320761369102485214L
V679.png
p3577
tp3578
a(L26190344557271861730L
V951.png
p3579
tp3580
a(L20809514188549967586L
V1139.png
p3581
tp3582
a(L6630777766591934748L
V1790.png
p3583
tp3584
a(L36548937375374539524L
V636.png
p3585
tp3586
a(L34854049151144323938L
V1141.png
p3587
tp3588
a(L19717629131420922048L
V1167.png
p3589
tp3590
a(L32424578272580037888L
V1178.png
p3591
tp3592
a(L26200259069210225060L
V1921.png
p3593
tp3594
a(L6784604300904825646L
V1217.png
p3595
tp3596
a(L19493008087517573630L
V392.png
p3597
tp3598
a(L30262974607215216722L
V659.png
p3599
tp3600
a(L30284715113056405214L
V1651.png
p3601
tp3602
a(L26639564271248952544L
V1477.png
p3603
tp3604
a(L11260487296337884952L
V1029.png
p3605
tp3606
a(L16719898904482193628L
V850.png
p3607
tp3608
a(L30320695391961057018L
V692.png
p3609
tp3610
a(L17571794437302015858L
V1215.png
p3611
tp3612
a(L34017165887320437006L
V1789.png
p3613
tp3614
a(L4950090339238359868L
V1200.png
p3615
tp3616
a(L1010284142069625214L
V635.png
p3617
tp3618
a(L28000884890154792990L
V1412.png
p3619
tp3620
a(L10972810598378935580L
V892.png
p3621
tp3622
a(L6549213795500514096L
V142.png
p3623
tp3624
a(L11667612155988594384L
V1860.png
p3625
tp3626
a(L27325305480174329440L
V658.png
p3627
tp3628
a(L30262567573101727680L
V715.png
p3629
tp3630
a(L6049948965594417504L
V628.png
p3631
tp3632
a(L2717836649143390400L
V1720.png
p3633
tp3634
a(L21452535064061234912L
V377.png
p3635
tp3636
a(L26079405086472851118L
V1418.png
p3637
tp3638
a(L11241337712236343580L
V355.png
p3639
tp3640
a(L22192248436834324132L
V972.png
p3641
tp3642
a(L28947516311435701312L
V868.png
p3643
tp3644
a(L35431688438908604032L
V657.png
p3645
tp3646
a(L20895073207850878660L
V1951.png
p3647
tp3648
a(L35972128924073412388L
V1657.png
p3649
tp3650
a(L6630507191969526046L
V1819.png
p3651
tp3652
a(L26783775798843113376L
V1035.png
p3653
tp3654
a(L26637301241641411878L
V386.png
p3655
tp3656
a(L30318439335834781406L
V1551.png
p3657
tp3658
a(L12432208722214334744L
V141.png
p3659
tp3660
a(L30320695529400010462L
V1378.png
p3661
tp3662
a(L12783476708794760448L
V864.png
p3663
tp3664
a(L6778269414216511782L
V467.png
p3665
tp3666
a(L15672485264758073632L
V1811.png
p3667
tp3668
a(L28509781663403616514L
V55.png
p3669
tp3670
a(L34548821608303585568L
V1208.png
p3671
tp3672
a(L8552310489164944248L
V1013.png
p3673
tp3674
a(L1498755508183339230L
V167.png
p3675
tp3676
a(L17905110907830060872L
V302.png
p3677
tp3678
a(L16140841631142157138L
V1419.png
p3679
tp3680
a(L30321258341949015770L
V1763.png
p3681
tp3682
a(L214386546793236616L
V1955.png
p3683
tp3684
a(L1836054836789005728L
V1006.png
p3685
tp3686
a(L32363606132827564324L
V1954.png
p3687
tp3688
a(L2166020434024470846L
V904.png
p3689
tp3690
a(L15925011359684931868L
V1329.png
p3691
tp3692
a(L22048274054983143012L
V895.png
p3693
tp3694
a(L24497018359132885984L
V1515.png
p3695
tp3696
a(L10671086042758590556L
V1812.png
p3697
tp3698
a(L23904997004835219680L
V1814.png
p3699
tp3700
a(L18140331683318481634L
V908.png
p3701
tp3702
a(L3743404935064804900L
V605.png
p3703
tp3704
a(L35418055996628527584L
V571.png
p3705
tp3706
a(L30325198441833662174L
V1240.png
p3707
tp3708
a(L18239534161309132960L
V599.png
p3709
tp3710
a(L33290988833630108154L
V680.png
p3711
tp3712
a(L30320534450367661598L
V12.png
p3713
tp3714
a(L26228830166692022752L
V1713.png
p3715
tp3716
a(L2183218579066163518L
V144.png
p3717
tp3718
a(L30320977004376655578L
V1727.png
p3719
tp3720
a(L36539690067888434948L
V1255.png
p3721
tp3722
a(L5709090832953678348L
V713.png
p3723
tp3724
a(L14704615293056386870L
V186.png
p3725
tp3726
a(L3743404762196591910L
V967.png
p3727
tp3728
a(L30320765863784449790L
V1301.png
p3729
tp3730
a(L6792907337876389694L
V531.png
p3731
tp3732
a(L4863856995903105696L
V1262.png
p3733
tp3734
a(L25055256100034509408L
V602.png
p3735
tp3736
a(L36395388378640698656L
V63.png
p3737
tp3738
a(L6783337152563867952L
V1883.png
p3739
tp3740
a(L7093940846639376092L
V839.png
p3741
tp3742
a(L30311545812544163534L
V1144.png
p3743
tp3744
a(L26172196508786972960L
V1525.png
p3745
tp3746
a(L6321747975612356202L
V65.png
p3747
tp3748
a(L35395659590146875360L
V1964.png
p3749
tp3750
a(L5996384633457925024L
V1868.png
p3751
tp3752
a(L31767413897310143690L
V497.png
p3753
tp3754
a(L30158553182635659208L
V644.png
p3755
tp3756
a(L6906104125025696158L
V89.png
p3757
tp3758
a(L18119041387148231456L
V1203.png
p3759
tp3760
a(L18101867472060049824L
V514.png
p3761
tp3762
a(L3692516751391280928L
V1714.png
p3763
tp3764
a(L23864863068107204916L
V594.png
p3765
tp3766
a(L12966883046622748448L
V1472.png
p3767
tp3768
a(L19351355324770366430L
V105.png
p3769
tp3770
a(L6572852673282009524L
V445.png
p3771
tp3772
a(L30320695391962040016L
V246.png
p3773
tp3774
a(L27380661763218231076L
V1678.png
p3775
tp3776
a(L34894452625011685118L
V1779.png
p3777
tp3778
a(L6034575039934458272L
V1970.png
p3779
tp3780
a(L10127823049110860060L
V994.png
p3781
tp3782
a(L30957055819843270904L
V1071.png
p3783
tp3784
a(L6683663062020690718L
V1000.png
p3785
tp3786
a(L11667609892562128458L
V1580.png
p3787
tp3788
a(L4322326913822478082L
V1899.png
p3789
tp3790
a(L11386509104714690910L
V1028.png
p3791
tp3792
a(L10813505144038463070L
V289.png
p3793
tp3794
a(L4881746060033786744L
V1878.png
p3795
tp3796
a(L30322167575770597022L
V1291.png
p3797
tp3798
a(L18016180321142061864L
V1837.png
p3799
tp3800
a(L23875480029981539104L
V1876.png
p3801
tp3802
a(L15825764893975647034L
V220.png
p3803
tp3804
a(L26286661539019457790L
V1994.png
p3805
tp3806
a(L14737257050828716350L
V870.png
p3807
tp3808
a(L3959141734993839560L
V1626.png
p3809
tp3810
a(L35904276949913409342L
V1799.png
p3811
tp3812
a(L31166561904298494986L
V338.png
p3813
tp3814
a(L27360093469679438944L
V684.png
p3815
tp3816
a(L5987267623966464292L
V279.png
p3817
tp3818
a(L15926967081261030432L
V1605.png
p3819
tp3820
a(L21021875477451304930L
V22.png
p3821
tp3822
a(L31219225196051158774L
V242.png
p3823
tp3824
a(L31474813302118319838L
V255.png
p3825
tp3826
a(L27325292972644662180L
V1442.png
p3827
tp3828
a(L29165832227688318590L
V780.png
p3829
tp3830
a(L24469534582798430688L
V660.png
p3831
tp3832
a(L4875095449429506600L
V393.png
p3833
tp3834
a(L19499816257040167326L
V1665.png
p3835
tp3836
a(L34296810691920376816L
V1155.png
p3837
tp3838
a(L33032254740403307008L
V1251.png
p3839
tp3840
a(L21418981566253813636L
V266.png
p3841
tp3842
a(L12970214605423005280L
V1268.png
p3843
tp3844
a(L9568108343397548634L
V434.png
p3845
tp3846
a(L35472859682287490590L
V1017.png
p3847
tp3848
a(L13062395975649102138L
V1716.png
p3849
tp3850
a(L27795702483877727938L
V111.png
p3851
tp3852
a(L6774896733165302042L
V1975.png
p3853
tp3854
a(L30687800446064494216L
V977.png
p3855
tp3856
a(L14862232805870285084L
V714.png
p3857
tp3858
a(L5347467987095550242L
V1645.png
p3859
tp3860
a(L6572933353393584416L
V1106.png
p3861
tp3862
a(L30325189792059066064L
V197.png
p3863
tp3864
a(L6648509589539354426L
V462.png
p3865
tp3866
a(L24109136458306828760L
V1335.png
p3867
tp3868
a(L15457155752418087802L
V343.png
p3869
tp3870
a(L7716641463775197992L
V1380.png
p3871
tp3872
a(L21097322393034589402L
V1835.png
p3873
tp3874
a(L31271516247464594950L
V1086.png
p3875
tp3876
a(L2039356824154805534L
V19.png
p3877
tp3878
a(L8321296198511772964L
V261.png
p3879
tp3880
a(L8196138417843235206L
V1496.png
p3881
tp3882
a(L3580790824062614726L
V1614.png
p3883
tp3884
a(L10253932401428574494L
V744.png
p3885
tp3886
a(L18641283069236734724L
V1470.png
p3887
tp3888
a(L6464737700459801892L
V645.png
p3889
tp3890
a(L35494201117058610906L
V1528.png
p3891
tp3892
a(L6648792101750681630L
V1105.png
p3893
tp3894
a(L28923969648577116872L
V675.png
p3895
tp3896
a(L21616078287672102848L
V1903.png
p3897
tp3898
a(L22751039277608624096L
V882.png
p3899
tp3900
a(L9025470711407346974L
V1065.png
p3901
tp3902
a(L6647692636289282334L
V878.png
p3903
tp3904
a(L35323564543691599268L
V222.png
p3905
tp3906
a(L30320695529400010462L
V1159.png
p3907
tp3908
a(L8792233390700443966L
V1637.png
p3909
tp3910
a(L8231733002246314872L
V1554.png
p3911
tp3912
a(L6869470877932501272L
V168.png
p3913
tp3914
a(L35364682055835821554L
V738.png
p3915
tp3916
a(L5477432915615103450L
V125.png
p3917
tp3918
a(L6855722847609049910L
V1864.png
p3919
tp3920
a(L22197532215719606236L
V415.png
p3921
tp3922
a(L8610579393369108260L
V1302.png
p3923
tp3924
a(L7619825944915275210L
V947.png
p3925
tp3926
a(L30561066227434999474L
V1817.png
p3927
tp3928
a(L34650342131095496388L
V430.png
p3929
tp3930
a(L6625653418178865440L
V1930.png
p3931
tp3932
a(L6207167013450955070L
V1492.png
p3933
tp3934
a(L15796082015980906816L
V1096.png
p3935
tp3936
a(L36027291399593021268L
V362.png
p3937
tp3938
a(L10251349403801859358L
V1590.png
p3939
tp3940
a(L5534567017986130904L
V1532.png
p3941
tp3942
a(L30861459536589457114L
V929.png
p3943
tp3944
a(L31622218081349127832L
V587.png
p3945
tp3946
a(L22750467817723330470L
V1761.png
p3947
tp3948
a(L5566846742001127704L
V1245.png
p3949
tp3950
a(L34296931157150197762L
V769.png
p3951
tp3952
a(L868421888752595230L
V1404.png
p3953
tp3954
a(L35412813830231615748L
V1726.png
p3955
tp3956
a(L30320691011094415322L
V662.png
p3957
tp3958
a(L22048397736275592996L
V985.png
p3959
tp3960
a(L34717042348133991106L
V1266.png
p3961
tp3962
a(L21125710927335509152L
V559.png
p3963
tp3964
a(L30302953273968600798L
V11.png
p3965
tp3966
a(L1071029005535398096L
V1507.png
p3967
tp3968
a(L6168031617599420446L
V600.png
p3969
tp3970
a(L6774620086537042366L
V481.png
p3971
tp3972
a(L30320834486624356042L
V1909.png
p3973
tp3974
a(L30109868648167360086L
V259.png
p3975
tp3976
a(L5630917162599543198L
V1072.png
p3977
tp3978
a(L26956009478814054384L
V1352.png
p3979
tp3980
a(L10863225297250393708L
V1493.png
p3981
tp3982
a(L27362724403490807776L
V1274.png
p3983
tp3984
a(L25908321833243411194L
V1416.png
p3985
tp3986
a(L15092131958194133092L
V426.png
p3987
tp3988
a(L30320690996062291678L
V1018.png
p3989
tp3990
a(L28687300186364813790L
V276.png
p3991
tp3992
a(L6630786408066102556L
V610.png
p3993
tp3994
a(L11241270797735932180L
V64.png
p3995
tp3996
a(L13565222199727527194L
V510.png
p3997
tp3998
a(L26825617158165382564L
V122.png
p3999
tp4000
a.